ARM GAS  C:\Users\PHYSLA~1\AppData\Local\Temp\cc7wy4om.s 			page 1


   1              		.syntax unified
   2              		.cpu cortex-m0
   3              		.fpu softvfp
   4              		.eabi_attribute 20, 1
   5              		.eabi_attribute 21, 1
   6              		.eabi_attribute 23, 3
   7              		.eabi_attribute 24, 1
   8              		.eabi_attribute 25, 1
   9              		.eabi_attribute 26, 1
  10              		.eabi_attribute 30, 1
  11              		.eabi_attribute 34, 0
  12              		.eabi_attribute 18, 4
  13              		.thumb
  14              		.syntax unified
  15              		.file	"cyfitter_cfg.c"
  16              		.text
  17              	.Ltext0:
  18              		.cfi_sections	.debug_frame
  19              		.section	.text.cfg_write_bytes32,"ax",%progbits
  20              		.align	2
  21              		.code	16
  22              		.thumb_func
  23              		.type	cfg_write_bytes32, %function
  24              	cfg_write_bytes32:
  25              	.LFB3:
  26              		.file 1 "Generated_Source\\PSoC4\\cyfitter_cfg.c"
   1:Generated_Source\PSoC4/cyfitter_cfg.c **** 
   2:Generated_Source\PSoC4/cyfitter_cfg.c **** /*******************************************************************************
   3:Generated_Source\PSoC4/cyfitter_cfg.c **** * File Name: cyfitter_cfg.c
   4:Generated_Source\PSoC4/cyfitter_cfg.c **** * 
   5:Generated_Source\PSoC4/cyfitter_cfg.c **** * PSoC Creator  4.2
   6:Generated_Source\PSoC4/cyfitter_cfg.c **** *
   7:Generated_Source\PSoC4/cyfitter_cfg.c **** * Description:
   8:Generated_Source\PSoC4/cyfitter_cfg.c **** * This file contains device initialization code.
   9:Generated_Source\PSoC4/cyfitter_cfg.c **** * Except for the user defined sections in CyClockStartupError(), this file should not be modified.
  10:Generated_Source\PSoC4/cyfitter_cfg.c **** * This file is automatically generated by PSoC Creator.
  11:Generated_Source\PSoC4/cyfitter_cfg.c **** *
  12:Generated_Source\PSoC4/cyfitter_cfg.c **** ********************************************************************************
  13:Generated_Source\PSoC4/cyfitter_cfg.c **** * Copyright (c) 2007-2018 Cypress Semiconductor.  All rights reserved.
  14:Generated_Source\PSoC4/cyfitter_cfg.c **** * You may use this file only in accordance with the license, terms, conditions, 
  15:Generated_Source\PSoC4/cyfitter_cfg.c **** * disclaimers, and limitations in the end user license agreement accompanying 
  16:Generated_Source\PSoC4/cyfitter_cfg.c **** * the software package with which this file was provided.
  17:Generated_Source\PSoC4/cyfitter_cfg.c **** ********************************************************************************/
  18:Generated_Source\PSoC4/cyfitter_cfg.c **** 
  19:Generated_Source\PSoC4/cyfitter_cfg.c **** #include <string.h>
  20:Generated_Source\PSoC4/cyfitter_cfg.c **** #include "cytypes.h"
  21:Generated_Source\PSoC4/cyfitter_cfg.c **** #include "cydevice_trm.h"
  22:Generated_Source\PSoC4/cyfitter_cfg.c **** #include "cyfitter.h"
  23:Generated_Source\PSoC4/cyfitter_cfg.c **** #include "CyLib.h"
  24:Generated_Source\PSoC4/cyfitter_cfg.c **** #include "CyLFClk.h"
  25:Generated_Source\PSoC4/cyfitter_cfg.c **** #include "cyfitter_cfg.h"
  26:Generated_Source\PSoC4/cyfitter_cfg.c **** #include "cyapicallbacks.h"
  27:Generated_Source\PSoC4/cyfitter_cfg.c **** 
  28:Generated_Source\PSoC4/cyfitter_cfg.c **** 
  29:Generated_Source\PSoC4/cyfitter_cfg.c **** #if defined(__GNUC__) || defined(__ARMCC_VERSION)
  30:Generated_Source\PSoC4/cyfitter_cfg.c ****     #define CYPACKED 
  31:Generated_Source\PSoC4/cyfitter_cfg.c ****     #define CYPACKED_ATTR __attribute__ ((packed))
ARM GAS  C:\Users\PHYSLA~1\AppData\Local\Temp\cc7wy4om.s 			page 2


  32:Generated_Source\PSoC4/cyfitter_cfg.c ****     #define CYALIGNED __attribute__ ((aligned))
  33:Generated_Source\PSoC4/cyfitter_cfg.c ****     #define CY_CFG_UNUSED __attribute__ ((unused))
  34:Generated_Source\PSoC4/cyfitter_cfg.c ****     #ifndef CY_CFG_SECTION
  35:Generated_Source\PSoC4/cyfitter_cfg.c ****         #define CY_CFG_SECTION __attribute__ ((section(".psocinit")))
  36:Generated_Source\PSoC4/cyfitter_cfg.c ****     #endif
  37:Generated_Source\PSoC4/cyfitter_cfg.c ****     
  38:Generated_Source\PSoC4/cyfitter_cfg.c ****     #if defined(__ARMCC_VERSION)
  39:Generated_Source\PSoC4/cyfitter_cfg.c ****         #define CY_CFG_MEMORY_BARRIER() __memory_changed()
  40:Generated_Source\PSoC4/cyfitter_cfg.c ****     #else
  41:Generated_Source\PSoC4/cyfitter_cfg.c ****         #define CY_CFG_MEMORY_BARRIER() __sync_synchronize()
  42:Generated_Source\PSoC4/cyfitter_cfg.c ****     #endif
  43:Generated_Source\PSoC4/cyfitter_cfg.c ****     
  44:Generated_Source\PSoC4/cyfitter_cfg.c **** #elif defined(__ICCARM__)
  45:Generated_Source\PSoC4/cyfitter_cfg.c ****     #include <intrinsics.h>
  46:Generated_Source\PSoC4/cyfitter_cfg.c **** 
  47:Generated_Source\PSoC4/cyfitter_cfg.c ****     #define CYPACKED __packed
  48:Generated_Source\PSoC4/cyfitter_cfg.c ****     #define CYPACKED_ATTR 
  49:Generated_Source\PSoC4/cyfitter_cfg.c ****     #define CYALIGNED _Pragma("data_alignment=4")
  50:Generated_Source\PSoC4/cyfitter_cfg.c ****     #define CY_CFG_UNUSED _Pragma("diag_suppress=Pe177")
  51:Generated_Source\PSoC4/cyfitter_cfg.c ****     #define CY_CFG_SECTION _Pragma("location=\".psocinit\"")
  52:Generated_Source\PSoC4/cyfitter_cfg.c ****     
  53:Generated_Source\PSoC4/cyfitter_cfg.c ****     #define CY_CFG_MEMORY_BARRIER() __DMB()
  54:Generated_Source\PSoC4/cyfitter_cfg.c ****     
  55:Generated_Source\PSoC4/cyfitter_cfg.c **** #else
  56:Generated_Source\PSoC4/cyfitter_cfg.c ****     #error Unsupported toolchain
  57:Generated_Source\PSoC4/cyfitter_cfg.c **** #endif
  58:Generated_Source\PSoC4/cyfitter_cfg.c **** 
  59:Generated_Source\PSoC4/cyfitter_cfg.c **** #ifndef CYCODE
  60:Generated_Source\PSoC4/cyfitter_cfg.c ****     #define CYCODE
  61:Generated_Source\PSoC4/cyfitter_cfg.c **** #endif
  62:Generated_Source\PSoC4/cyfitter_cfg.c **** #ifndef CYDATA
  63:Generated_Source\PSoC4/cyfitter_cfg.c ****     #define CYDATA
  64:Generated_Source\PSoC4/cyfitter_cfg.c **** #endif
  65:Generated_Source\PSoC4/cyfitter_cfg.c **** #ifndef CYFAR
  66:Generated_Source\PSoC4/cyfitter_cfg.c ****     #define CYFAR
  67:Generated_Source\PSoC4/cyfitter_cfg.c **** #endif
  68:Generated_Source\PSoC4/cyfitter_cfg.c **** #ifndef CYXDATA
  69:Generated_Source\PSoC4/cyfitter_cfg.c ****     #define CYXDATA
  70:Generated_Source\PSoC4/cyfitter_cfg.c **** #endif
  71:Generated_Source\PSoC4/cyfitter_cfg.c **** 
  72:Generated_Source\PSoC4/cyfitter_cfg.c **** 
  73:Generated_Source\PSoC4/cyfitter_cfg.c **** CY_CFG_UNUSED
  74:Generated_Source\PSoC4/cyfitter_cfg.c **** static void CYMEMZERO(void *s, size_t n);
  75:Generated_Source\PSoC4/cyfitter_cfg.c **** CY_CFG_UNUSED
  76:Generated_Source\PSoC4/cyfitter_cfg.c **** static void CYMEMZERO(void *s, size_t n)
  77:Generated_Source\PSoC4/cyfitter_cfg.c **** {
  78:Generated_Source\PSoC4/cyfitter_cfg.c **** 	(void)memset(s, 0, n);
  79:Generated_Source\PSoC4/cyfitter_cfg.c **** }
  80:Generated_Source\PSoC4/cyfitter_cfg.c **** CY_CFG_UNUSED
  81:Generated_Source\PSoC4/cyfitter_cfg.c **** static void CYCONFIGCPY(void *dest, const void *src, size_t n);
  82:Generated_Source\PSoC4/cyfitter_cfg.c **** CY_CFG_UNUSED
  83:Generated_Source\PSoC4/cyfitter_cfg.c **** static void CYCONFIGCPY(void *dest, const void *src, size_t n)
  84:Generated_Source\PSoC4/cyfitter_cfg.c **** {
  85:Generated_Source\PSoC4/cyfitter_cfg.c **** 	(void)memcpy(dest, src, n);
  86:Generated_Source\PSoC4/cyfitter_cfg.c **** }
  87:Generated_Source\PSoC4/cyfitter_cfg.c **** CY_CFG_UNUSED
  88:Generated_Source\PSoC4/cyfitter_cfg.c **** static void CYCONFIGCPYCODE(void *dest, const void *src, size_t n);
ARM GAS  C:\Users\PHYSLA~1\AppData\Local\Temp\cc7wy4om.s 			page 3


  89:Generated_Source\PSoC4/cyfitter_cfg.c **** CY_CFG_UNUSED
  90:Generated_Source\PSoC4/cyfitter_cfg.c **** static void CYCONFIGCPYCODE(void *dest, const void *src, size_t n)
  91:Generated_Source\PSoC4/cyfitter_cfg.c **** {
  92:Generated_Source\PSoC4/cyfitter_cfg.c **** 	(void)memcpy(dest, src, n);
  93:Generated_Source\PSoC4/cyfitter_cfg.c **** }
  94:Generated_Source\PSoC4/cyfitter_cfg.c **** 
  95:Generated_Source\PSoC4/cyfitter_cfg.c **** 
  96:Generated_Source\PSoC4/cyfitter_cfg.c **** 
  97:Generated_Source\PSoC4/cyfitter_cfg.c **** 
  98:Generated_Source\PSoC4/cyfitter_cfg.c **** /* Clock startup error codes                                                   */
  99:Generated_Source\PSoC4/cyfitter_cfg.c **** #define CYCLOCKSTART_NO_ERROR    0u
 100:Generated_Source\PSoC4/cyfitter_cfg.c **** #define CYCLOCKSTART_XTAL_ERROR  1u
 101:Generated_Source\PSoC4/cyfitter_cfg.c **** #define CYCLOCKSTART_32KHZ_ERROR 2u
 102:Generated_Source\PSoC4/cyfitter_cfg.c **** #define CYCLOCKSTART_PLL_ERROR   3u
 103:Generated_Source\PSoC4/cyfitter_cfg.c **** #define CYCLOCKSTART_FLL_ERROR   4u
 104:Generated_Source\PSoC4/cyfitter_cfg.c **** #define CYCLOCKSTART_WCO_ERROR   5u
 105:Generated_Source\PSoC4/cyfitter_cfg.c **** 
 106:Generated_Source\PSoC4/cyfitter_cfg.c **** 
 107:Generated_Source\PSoC4/cyfitter_cfg.c **** #ifdef CY_NEED_CYCLOCKSTARTUPERROR
 108:Generated_Source\PSoC4/cyfitter_cfg.c **** /*******************************************************************************
 109:Generated_Source\PSoC4/cyfitter_cfg.c **** * Function Name: CyClockStartupError
 110:Generated_Source\PSoC4/cyfitter_cfg.c **** ********************************************************************************
 111:Generated_Source\PSoC4/cyfitter_cfg.c **** * Summary:
 112:Generated_Source\PSoC4/cyfitter_cfg.c **** *  If an error is encountered during clock configuration (crystal startup error,
 113:Generated_Source\PSoC4/cyfitter_cfg.c **** *  PLL lock error, etc.), the system will end up here.  Unless reimplemented by
 114:Generated_Source\PSoC4/cyfitter_cfg.c **** *  the customer, this function will stop in an infinite loop.
 115:Generated_Source\PSoC4/cyfitter_cfg.c **** *
 116:Generated_Source\PSoC4/cyfitter_cfg.c **** * Parameters:
 117:Generated_Source\PSoC4/cyfitter_cfg.c **** *   void
 118:Generated_Source\PSoC4/cyfitter_cfg.c **** *
 119:Generated_Source\PSoC4/cyfitter_cfg.c **** * Return:
 120:Generated_Source\PSoC4/cyfitter_cfg.c **** *   void
 121:Generated_Source\PSoC4/cyfitter_cfg.c **** *
 122:Generated_Source\PSoC4/cyfitter_cfg.c **** *******************************************************************************/
 123:Generated_Source\PSoC4/cyfitter_cfg.c **** CY_CFG_UNUSED
 124:Generated_Source\PSoC4/cyfitter_cfg.c **** static void CyClockStartupError(uint8 errorCode);
 125:Generated_Source\PSoC4/cyfitter_cfg.c **** CY_CFG_UNUSED
 126:Generated_Source\PSoC4/cyfitter_cfg.c **** static void CyClockStartupError(uint8 errorCode)
 127:Generated_Source\PSoC4/cyfitter_cfg.c **** {
 128:Generated_Source\PSoC4/cyfitter_cfg.c ****     /* To remove the compiler warning if errorCode not used.                */
 129:Generated_Source\PSoC4/cyfitter_cfg.c ****     errorCode = errorCode;
 130:Generated_Source\PSoC4/cyfitter_cfg.c **** 
 131:Generated_Source\PSoC4/cyfitter_cfg.c ****     /* If we have a clock startup error (bad MHz crystal, PLL lock, etc.),  */
 132:Generated_Source\PSoC4/cyfitter_cfg.c ****     /* we will end up here to allow the customer to implement something to  */
 133:Generated_Source\PSoC4/cyfitter_cfg.c ****     /* deal with the clock condition.                                       */
 134:Generated_Source\PSoC4/cyfitter_cfg.c **** 
 135:Generated_Source\PSoC4/cyfitter_cfg.c **** #ifdef CY_CFG_CLOCK_STARTUP_ERROR_CALLBACK
 136:Generated_Source\PSoC4/cyfitter_cfg.c ****     CY_CFG_Clock_Startup_ErrorCallback();
 137:Generated_Source\PSoC4/cyfitter_cfg.c **** #else
 138:Generated_Source\PSoC4/cyfitter_cfg.c ****     /*  If not using CY_CFG_CLOCK_STARTUP_ERROR_CALLBACK, place your clock startup code here. */
 139:Generated_Source\PSoC4/cyfitter_cfg.c ****     /* `#START CyClockStartupError` */
 140:Generated_Source\PSoC4/cyfitter_cfg.c **** 
 141:Generated_Source\PSoC4/cyfitter_cfg.c **** 
 142:Generated_Source\PSoC4/cyfitter_cfg.c **** 
 143:Generated_Source\PSoC4/cyfitter_cfg.c ****     /* `#END` */
 144:Generated_Source\PSoC4/cyfitter_cfg.c **** 
 145:Generated_Source\PSoC4/cyfitter_cfg.c ****     while(1) {}
ARM GAS  C:\Users\PHYSLA~1\AppData\Local\Temp\cc7wy4om.s 			page 4


 146:Generated_Source\PSoC4/cyfitter_cfg.c **** #endif /* CY_CFG_CLOCK_STARTUP_ERROR_CALLBACK */
 147:Generated_Source\PSoC4/cyfitter_cfg.c **** }
 148:Generated_Source\PSoC4/cyfitter_cfg.c **** #endif
 149:Generated_Source\PSoC4/cyfitter_cfg.c **** 
 150:Generated_Source\PSoC4/cyfitter_cfg.c **** #define CY_CFG_BASE_ADDR_COUNT 9u
 151:Generated_Source\PSoC4/cyfitter_cfg.c **** CYPACKED typedef struct
 152:Generated_Source\PSoC4/cyfitter_cfg.c **** {
 153:Generated_Source\PSoC4/cyfitter_cfg.c **** 	uint8 offset;
 154:Generated_Source\PSoC4/cyfitter_cfg.c **** 	uint8 value;
 155:Generated_Source\PSoC4/cyfitter_cfg.c **** } CYPACKED_ATTR cy_cfg_addrvalue_t;
 156:Generated_Source\PSoC4/cyfitter_cfg.c **** 
 157:Generated_Source\PSoC4/cyfitter_cfg.c **** 
 158:Generated_Source\PSoC4/cyfitter_cfg.c **** 
 159:Generated_Source\PSoC4/cyfitter_cfg.c **** /*******************************************************************************
 160:Generated_Source\PSoC4/cyfitter_cfg.c **** * Function Name: cfg_write_bytes32
 161:Generated_Source\PSoC4/cyfitter_cfg.c **** ********************************************************************************
 162:Generated_Source\PSoC4/cyfitter_cfg.c **** * Summary:
 163:Generated_Source\PSoC4/cyfitter_cfg.c **** *  This function is used for setting up the chip configuration areas that
 164:Generated_Source\PSoC4/cyfitter_cfg.c **** *  contain relatively sparse data.
 165:Generated_Source\PSoC4/cyfitter_cfg.c **** *
 166:Generated_Source\PSoC4/cyfitter_cfg.c **** * Parameters:
 167:Generated_Source\PSoC4/cyfitter_cfg.c **** *   void
 168:Generated_Source\PSoC4/cyfitter_cfg.c **** *
 169:Generated_Source\PSoC4/cyfitter_cfg.c **** * Return:
 170:Generated_Source\PSoC4/cyfitter_cfg.c **** *   void
 171:Generated_Source\PSoC4/cyfitter_cfg.c **** *
 172:Generated_Source\PSoC4/cyfitter_cfg.c **** *******************************************************************************/
 173:Generated_Source\PSoC4/cyfitter_cfg.c **** static void cfg_write_bytes32(const uint32 addr_table[], const cy_cfg_addrvalue_t data_table[]);
 174:Generated_Source\PSoC4/cyfitter_cfg.c **** static void cfg_write_bytes32(const uint32 addr_table[], const cy_cfg_addrvalue_t data_table[])
 175:Generated_Source\PSoC4/cyfitter_cfg.c **** {
  27              		.loc 1 175 0
  28              		.cfi_startproc
  29              		@ args = 0, pretend = 0, frame = 0
  30              		@ frame_needed = 0, uses_anonymous_args = 0
  31              	.LVL0:
  32 0000 F0B5     		push	{r4, r5, r6, r7, lr}
  33              		.cfi_def_cfa_offset 20
  34              		.cfi_offset 4, -20
  35              		.cfi_offset 5, -16
  36              		.cfi_offset 6, -12
  37              		.cfi_offset 7, -8
  38              		.cfi_offset 14, -4
  39              	.LVL1:
 176:Generated_Source\PSoC4/cyfitter_cfg.c **** 	/* For 32-bit little-endian architectures */
 177:Generated_Source\PSoC4/cyfitter_cfg.c **** 	uint32 i, j = 0u;
  40              		.loc 1 177 0
  41 0002 0025     		movs	r5, #0
 178:Generated_Source\PSoC4/cyfitter_cfg.c **** 	for (i = 0u; i < CY_CFG_BASE_ADDR_COUNT; i++)
  42              		.loc 1 178 0
  43 0004 0027     		movs	r7, #0
  44 0006 11E0     		b	.L2
  45              	.LVL2:
  46              	.L5:
  47              	.LBB2:
 179:Generated_Source\PSoC4/cyfitter_cfg.c **** 	{
 180:Generated_Source\PSoC4/cyfitter_cfg.c **** 		uint32 baseAddr = addr_table[i];
  48              		.loc 1 180 0
ARM GAS  C:\Users\PHYSLA~1\AppData\Local\Temp\cc7wy4om.s 			page 5


  49 0008 BB00     		lsls	r3, r7, #2
  50 000a C658     		ldr	r6, [r0, r3]
  51              	.LVL3:
 181:Generated_Source\PSoC4/cyfitter_cfg.c **** 		uint8 count = (uint8)baseAddr;
  52              		.loc 1 181 0
  53 000c F3B2     		uxtb	r3, r6
  54              	.LVL4:
 182:Generated_Source\PSoC4/cyfitter_cfg.c **** 		baseAddr &= 0xFFFFFF00u;
  55              		.loc 1 182 0
  56 000e FF22     		movs	r2, #255
  57 0010 9643     		bics	r6, r2
  58              	.LVL5:
 183:Generated_Source\PSoC4/cyfitter_cfg.c **** 		while (count != 0u)
  59              		.loc 1 183 0
  60 0012 08E0     		b	.L3
  61              	.L4:
 184:Generated_Source\PSoC4/cyfitter_cfg.c **** 		{
 185:Generated_Source\PSoC4/cyfitter_cfg.c **** 			CY_SET_REG8((void *)(baseAddr + data_table[j].offset), data_table[j].value);
  62              		.loc 1 185 0
  63 0014 6A00     		lsls	r2, r5, #1
  64 0016 8A18     		adds	r2, r1, r2
  65 0018 1478     		ldrb	r4, [r2]
  66 001a A419     		adds	r4, r4, r6
  67 001c 5278     		ldrb	r2, [r2, #1]
  68 001e 2270     		strb	r2, [r4]
 186:Generated_Source\PSoC4/cyfitter_cfg.c **** 			j++;
  69              		.loc 1 186 0
  70 0020 0135     		adds	r5, r5, #1
  71              	.LVL6:
 187:Generated_Source\PSoC4/cyfitter_cfg.c **** 			count--;
  72              		.loc 1 187 0
  73 0022 013B     		subs	r3, r3, #1
  74              	.LVL7:
  75 0024 DBB2     		uxtb	r3, r3
  76              	.LVL8:
  77              	.L3:
 183:Generated_Source\PSoC4/cyfitter_cfg.c **** 		{
  78              		.loc 1 183 0
  79 0026 002B     		cmp	r3, #0
  80 0028 F4D1     		bne	.L4
  81              	.LBE2:
 178:Generated_Source\PSoC4/cyfitter_cfg.c **** 	{
  82              		.loc 1 178 0 discriminator 2
  83 002a 0137     		adds	r7, r7, #1
  84              	.LVL9:
  85              	.L2:
 178:Generated_Source\PSoC4/cyfitter_cfg.c **** 	{
  86              		.loc 1 178 0 is_stmt 0 discriminator 1
  87 002c 082F     		cmp	r7, #8
  88 002e EBD9     		bls	.L5
 188:Generated_Source\PSoC4/cyfitter_cfg.c **** 		}
 189:Generated_Source\PSoC4/cyfitter_cfg.c **** 	}
 190:Generated_Source\PSoC4/cyfitter_cfg.c **** }
  89              		.loc 1 190 0 is_stmt 1
  90              		@ sp needed
  91              	.LVL10:
  92              	.LVL11:
ARM GAS  C:\Users\PHYSLA~1\AppData\Local\Temp\cc7wy4om.s 			page 6


  93 0030 F0BD     		pop	{r4, r5, r6, r7, pc}
  94              		.cfi_endproc
  95              	.LFE3:
  96              		.size	cfg_write_bytes32, .-cfg_write_bytes32
  97 0032 C046     		.section	.text.CYMEMZERO,"ax",%progbits
  98              		.align	2
  99              		.code	16
 100              		.thumb_func
 101              		.type	CYMEMZERO, %function
 102              	CYMEMZERO:
 103              	.LFB0:
  77:Generated_Source\PSoC4/cyfitter_cfg.c **** 	(void)memset(s, 0, n);
 104              		.loc 1 77 0
 105              		.cfi_startproc
 106              		@ args = 0, pretend = 0, frame = 0
 107              		@ frame_needed = 0, uses_anonymous_args = 0
 108              	.LVL12:
 109 0000 10B5     		push	{r4, lr}
 110              		.cfi_def_cfa_offset 8
 111              		.cfi_offset 4, -8
 112              		.cfi_offset 14, -4
 113 0002 0A00     		movs	r2, r1
  78:Generated_Source\PSoC4/cyfitter_cfg.c **** }
 114              		.loc 1 78 0
 115 0004 0021     		movs	r1, #0
 116              	.LVL13:
 117 0006 FFF7FEFF 		bl	memset
 118              	.LVL14:
  79:Generated_Source\PSoC4/cyfitter_cfg.c **** CY_CFG_UNUSED
 119              		.loc 1 79 0
 120              		@ sp needed
 121 000a 10BD     		pop	{r4, pc}
 122              		.cfi_endproc
 123              	.LFE0:
 124              		.size	CYMEMZERO, .-CYMEMZERO
 125              		.section	.psocinit,"ax",%progbits
 126              		.align	2
 127              		.code	16
 128              		.thumb_func
 129              		.type	ClockSetup, %function
 130              	ClockSetup:
 131              	.LFB4:
 191:Generated_Source\PSoC4/cyfitter_cfg.c **** 
 192:Generated_Source\PSoC4/cyfitter_cfg.c **** 
 193:Generated_Source\PSoC4/cyfitter_cfg.c **** /*******************************************************************************
 194:Generated_Source\PSoC4/cyfitter_cfg.c **** * Function Name: ClockSetup
 195:Generated_Source\PSoC4/cyfitter_cfg.c **** ********************************************************************************
 196:Generated_Source\PSoC4/cyfitter_cfg.c **** *
 197:Generated_Source\PSoC4/cyfitter_cfg.c **** * Summary:
 198:Generated_Source\PSoC4/cyfitter_cfg.c **** *   Performs the initialization of all of the clocks in the device based on the
 199:Generated_Source\PSoC4/cyfitter_cfg.c **** *   settings in the Clock tab of the DWR.  This includes enabling the requested
 200:Generated_Source\PSoC4/cyfitter_cfg.c **** *   clocks and setting the necessary dividers to produce the desired frequency. 
 201:Generated_Source\PSoC4/cyfitter_cfg.c **** *
 202:Generated_Source\PSoC4/cyfitter_cfg.c **** * Parameters:
 203:Generated_Source\PSoC4/cyfitter_cfg.c **** *   void
 204:Generated_Source\PSoC4/cyfitter_cfg.c **** *
 205:Generated_Source\PSoC4/cyfitter_cfg.c **** * Return:
ARM GAS  C:\Users\PHYSLA~1\AppData\Local\Temp\cc7wy4om.s 			page 7


 206:Generated_Source\PSoC4/cyfitter_cfg.c **** *   void
 207:Generated_Source\PSoC4/cyfitter_cfg.c **** *
 208:Generated_Source\PSoC4/cyfitter_cfg.c **** *******************************************************************************/
 209:Generated_Source\PSoC4/cyfitter_cfg.c **** static void ClockSetup(void);
 210:Generated_Source\PSoC4/cyfitter_cfg.c **** CY_CFG_SECTION
 211:Generated_Source\PSoC4/cyfitter_cfg.c **** static void ClockSetup(void)
 212:Generated_Source\PSoC4/cyfitter_cfg.c **** {
 132              		.loc 1 212 0
 133              		.cfi_startproc
 134              		@ args = 0, pretend = 0, frame = 0
 135              		@ frame_needed = 0, uses_anonymous_args = 0
 136 0000 70B5     		push	{r4, r5, r6, lr}
 137              		.cfi_def_cfa_offset 16
 138              		.cfi_offset 4, -16
 139              		.cfi_offset 5, -12
 140              		.cfi_offset 6, -8
 141              		.cfi_offset 14, -4
 213:Generated_Source\PSoC4/cyfitter_cfg.c **** 	/* Enable HALF_EN before trimming for the flash accelerator. */
 214:Generated_Source\PSoC4/cyfitter_cfg.c **** 	CY_SET_REG32((void CYXDATA *)(CYREG_CLK_SELECT), (CY_GET_REG32((void *)CYREG_CLK_SELECT) | 0x00040
 142              		.loc 1 214 0
 143 0002 154C     		ldr	r4, .L8
 144 0004 2368     		ldr	r3, [r4]
 145 0006 8022     		movs	r2, #128
 146 0008 D202     		lsls	r2, r2, #11
 147 000a 1343     		orrs	r3, r2
 148 000c 2360     		str	r3, [r4]
 215:Generated_Source\PSoC4/cyfitter_cfg.c **** 
 216:Generated_Source\PSoC4/cyfitter_cfg.c **** 	/* Setup and trim IMO based on desired frequency. */
 217:Generated_Source\PSoC4/cyfitter_cfg.c **** 	CySysClkWriteImoFreq(24u);
 149              		.loc 1 217 0
 150 000e 1820     		movs	r0, #24
 151 0010 FFF7FEFF 		bl	CySysClkWriteImoFreq
 152              	.LVL15:
 218:Generated_Source\PSoC4/cyfitter_cfg.c **** 
 219:Generated_Source\PSoC4/cyfitter_cfg.c **** 	/* Disable HALF_EN since it is not required at this IMO frequency. */
 220:Generated_Source\PSoC4/cyfitter_cfg.c **** 	CY_SET_REG32((void CYXDATA *)(CYREG_CLK_SELECT), (CY_GET_REG32((void *)CYREG_CLK_SELECT) & 0xFFFBF
 153              		.loc 1 220 0
 154 0014 2268     		ldr	r2, [r4]
 155 0016 114B     		ldr	r3, .L8+4
 156 0018 1340     		ands	r3, r2
 157 001a 2360     		str	r3, [r4]
 221:Generated_Source\PSoC4/cyfitter_cfg.c **** 	/* CYDEV_CLK_ILO_CONFIG Starting address: CYDEV_CLK_ILO_CONFIG */
 222:Generated_Source\PSoC4/cyfitter_cfg.c **** 	CY_SET_REG32((void *)(CYREG_CLK_ILO_CONFIG), 0x80000006u);
 158              		.loc 1 222 0
 159 001c 104A     		ldr	r2, .L8+8
 160 001e 114B     		ldr	r3, .L8+12
 161 0020 1A60     		str	r2, [r3]
 223:Generated_Source\PSoC4/cyfitter_cfg.c **** 
 224:Generated_Source\PSoC4/cyfitter_cfg.c **** 
 225:Generated_Source\PSoC4/cyfitter_cfg.c **** 	/* CYDEV_CLK_SELECT00 Starting address: CYDEV_CLK_SELECT00 */
 226:Generated_Source\PSoC4/cyfitter_cfg.c **** 	CY_SET_REG32((void *)(CYREG_CLK_SELECT13), 0x00000010u);
 162              		.loc 1 226 0
 163 0022 1022     		movs	r2, #16
 164 0024 104B     		ldr	r3, .L8+16
 165 0026 1A60     		str	r2, [r3]
 227:Generated_Source\PSoC4/cyfitter_cfg.c **** 	CY_SET_REG32((void *)(CYREG_CLK_SELECT15), 0x00000020u);
 166              		.loc 1 227 0
ARM GAS  C:\Users\PHYSLA~1\AppData\Local\Temp\cc7wy4om.s 			page 8


 167 0028 1032     		adds	r2, r2, #16
 168 002a 104B     		ldr	r3, .L8+20
 169 002c 1A60     		str	r2, [r3]
 228:Generated_Source\PSoC4/cyfitter_cfg.c **** 
 229:Generated_Source\PSoC4/cyfitter_cfg.c **** 	/* CYDEV_CLK_IMO_CONFIG Starting address: CYDEV_CLK_IMO_CONFIG */
 230:Generated_Source\PSoC4/cyfitter_cfg.c **** 	CY_SET_REG32((void *)(CYREG_CLK_IMO_CONFIG), 0x80000000u);
 170              		.loc 1 230 0
 171 002e 8022     		movs	r2, #128
 172 0030 1206     		lsls	r2, r2, #24
 173 0032 0F4B     		ldr	r3, .L8+24
 174 0034 1A60     		str	r2, [r3]
 231:Generated_Source\PSoC4/cyfitter_cfg.c **** 
 232:Generated_Source\PSoC4/cyfitter_cfg.c **** 	/* CYDEV_CLK_SELECT Starting address: CYDEV_CLK_SELECT */
 233:Generated_Source\PSoC4/cyfitter_cfg.c **** 	CY_SET_REG32((void *)(CYREG_CLK_SELECT), 0x00000000u);
 175              		.loc 1 233 0
 176 0036 0025     		movs	r5, #0
 177 0038 2560     		str	r5, [r4]
 234:Generated_Source\PSoC4/cyfitter_cfg.c **** 
 235:Generated_Source\PSoC4/cyfitter_cfg.c **** 	/* CYDEV_CLK_DIVIDER_A00 Starting address: CYDEV_CLK_DIVIDER_A00 */
 236:Generated_Source\PSoC4/cyfitter_cfg.c **** 	CY_SET_REG32((void *)(CYREG_CLK_DIVIDER_A00), 0x80000017u);
 178              		.loc 1 236 0
 179 003a 0E4B     		ldr	r3, .L8+28
 180 003c 0E4A     		ldr	r2, .L8+32
 181 003e 1360     		str	r3, [r2]
 237:Generated_Source\PSoC4/cyfitter_cfg.c **** 
 238:Generated_Source\PSoC4/cyfitter_cfg.c **** 	/* CYDEV_CLK_DIVIDER_B00 Starting address: CYDEV_CLK_DIVIDER_B00 */
 239:Generated_Source\PSoC4/cyfitter_cfg.c **** 	CY_SET_REG32((void *)(CYREG_CLK_DIVIDER_B00), 0x80000017u);
 182              		.loc 1 239 0
 183 0040 0E4A     		ldr	r2, .L8+36
 184 0042 1360     		str	r3, [r2]
 240:Generated_Source\PSoC4/cyfitter_cfg.c **** 
 241:Generated_Source\PSoC4/cyfitter_cfg.c **** 	(void)CyIntSetVector(9u, &CySysWdtIsr);
 185              		.loc 1 241 0
 186 0044 0E49     		ldr	r1, .L8+40
 187 0046 0920     		movs	r0, #9
 188 0048 FFF7FEFF 		bl	CyIntSetVector
 189              	.LVL16:
 242:Generated_Source\PSoC4/cyfitter_cfg.c **** 	CyIntEnable(9u);
 190              		.loc 1 242 0
 191 004c 0920     		movs	r0, #9
 192 004e FFF7FEFF 		bl	CyIntEnable
 193              	.LVL17:
 243:Generated_Source\PSoC4/cyfitter_cfg.c **** 	CY_SET_REG32((void *)(CYREG_WDT_CONFIG), 0x00000000u);
 194              		.loc 1 243 0
 195 0052 0C4B     		ldr	r3, .L8+44
 196 0054 1D60     		str	r5, [r3]
 244:Generated_Source\PSoC4/cyfitter_cfg.c **** }
 197              		.loc 1 244 0
 198              		@ sp needed
 199 0056 70BD     		pop	{r4, r5, r6, pc}
 200              	.L9:
 201              		.align	2
 202              	.L8:
 203 0058 00010B40 		.word	1074462976
 204 005c FFFFFBFF 		.word	-262145
 205 0060 06000080 		.word	-2147483642
 206 0064 04010B40 		.word	1074462980
ARM GAS  C:\Users\PHYSLA~1\AppData\Local\Temp\cc7wy4om.s 			page 9


 207 0068 34020240 		.word	1073873460
 208 006c 3C020240 		.word	1073873468
 209 0070 08010B40 		.word	1074462984
 210 0074 17000080 		.word	-2147483625
 211 0078 00000240 		.word	1073872896
 212 007c 40000240 		.word	1073872960
 213 0080 00000000 		.word	CySysWdtIsr
 214 0084 0C020B40 		.word	1074463244
 215              		.cfi_endproc
 216              	.LFE4:
 217              		.size	ClockSetup, .-ClockSetup
 218              		.align	2
 219              		.global	cyfitter_cfg
 220              		.code	16
 221              		.thumb_func
 222              		.type	cyfitter_cfg, %function
 223              	cyfitter_cfg:
 224              	.LFB6:
 245:Generated_Source\PSoC4/cyfitter_cfg.c **** 
 246:Generated_Source\PSoC4/cyfitter_cfg.c **** 
 247:Generated_Source\PSoC4/cyfitter_cfg.c **** /* Analog API Functions */
 248:Generated_Source\PSoC4/cyfitter_cfg.c **** 
 249:Generated_Source\PSoC4/cyfitter_cfg.c **** 
 250:Generated_Source\PSoC4/cyfitter_cfg.c **** /*******************************************************************************
 251:Generated_Source\PSoC4/cyfitter_cfg.c **** * Function Name: AnalogSetDefault
 252:Generated_Source\PSoC4/cyfitter_cfg.c **** ********************************************************************************
 253:Generated_Source\PSoC4/cyfitter_cfg.c **** *
 254:Generated_Source\PSoC4/cyfitter_cfg.c **** * Summary:
 255:Generated_Source\PSoC4/cyfitter_cfg.c **** *  Sets up the analog portions of the chip to default values based on chip
 256:Generated_Source\PSoC4/cyfitter_cfg.c **** *  configuration options from the project.
 257:Generated_Source\PSoC4/cyfitter_cfg.c **** *
 258:Generated_Source\PSoC4/cyfitter_cfg.c **** * Parameters:
 259:Generated_Source\PSoC4/cyfitter_cfg.c **** *  void
 260:Generated_Source\PSoC4/cyfitter_cfg.c **** *
 261:Generated_Source\PSoC4/cyfitter_cfg.c **** * Return:
 262:Generated_Source\PSoC4/cyfitter_cfg.c **** *  void
 263:Generated_Source\PSoC4/cyfitter_cfg.c **** *
 264:Generated_Source\PSoC4/cyfitter_cfg.c **** *******************************************************************************/
 265:Generated_Source\PSoC4/cyfitter_cfg.c **** static void AnalogSetDefault(void);
 266:Generated_Source\PSoC4/cyfitter_cfg.c **** static void AnalogSetDefault(void)
 267:Generated_Source\PSoC4/cyfitter_cfg.c **** {
 268:Generated_Source\PSoC4/cyfitter_cfg.c **** }
 269:Generated_Source\PSoC4/cyfitter_cfg.c **** 
 270:Generated_Source\PSoC4/cyfitter_cfg.c **** 
 271:Generated_Source\PSoC4/cyfitter_cfg.c **** 
 272:Generated_Source\PSoC4/cyfitter_cfg.c **** 
 273:Generated_Source\PSoC4/cyfitter_cfg.c **** /*******************************************************************************
 274:Generated_Source\PSoC4/cyfitter_cfg.c **** * Function Name: cyfitter_cfg
 275:Generated_Source\PSoC4/cyfitter_cfg.c **** ********************************************************************************
 276:Generated_Source\PSoC4/cyfitter_cfg.c **** * Summary:
 277:Generated_Source\PSoC4/cyfitter_cfg.c **** *  This function is called by the start-up code for the selected device. It
 278:Generated_Source\PSoC4/cyfitter_cfg.c **** *  performs all of the necessary device configuration based on the design
 279:Generated_Source\PSoC4/cyfitter_cfg.c **** *  settings.  This includes settings from the Design Wide Resources (DWR) such
 280:Generated_Source\PSoC4/cyfitter_cfg.c **** *  as Clocks and Pins as well as any component configuration that is necessary.
 281:Generated_Source\PSoC4/cyfitter_cfg.c **** *
 282:Generated_Source\PSoC4/cyfitter_cfg.c **** * Parameters:
 283:Generated_Source\PSoC4/cyfitter_cfg.c **** *   void
ARM GAS  C:\Users\PHYSLA~1\AppData\Local\Temp\cc7wy4om.s 			page 10


 284:Generated_Source\PSoC4/cyfitter_cfg.c **** *
 285:Generated_Source\PSoC4/cyfitter_cfg.c **** * Return:
 286:Generated_Source\PSoC4/cyfitter_cfg.c **** *   void
 287:Generated_Source\PSoC4/cyfitter_cfg.c **** *
 288:Generated_Source\PSoC4/cyfitter_cfg.c **** *******************************************************************************/
 289:Generated_Source\PSoC4/cyfitter_cfg.c **** CY_CFG_SECTION
 290:Generated_Source\PSoC4/cyfitter_cfg.c **** void cyfitter_cfg(void)
 291:Generated_Source\PSoC4/cyfitter_cfg.c **** {
 225              		.loc 1 291 0
 226              		.cfi_startproc
 227              		@ args = 0, pretend = 0, frame = 0
 228              		@ frame_needed = 0, uses_anonymous_args = 0
 229 0088 10B5     		push	{r4, lr}
 230              		.cfi_def_cfa_offset 8
 231              		.cfi_offset 4, -8
 232              		.cfi_offset 14, -4
 292:Generated_Source\PSoC4/cyfitter_cfg.c **** 	/* Disable interrupts by default. Let user enable if/when they want. */
 293:Generated_Source\PSoC4/cyfitter_cfg.c **** 	CyGlobalIntDisable;
 233              		.loc 1 293 0
 234              		.syntax divided
 235              	@ 293 "Generated_Source\PSoC4\cyfitter_cfg.c" 1
 236 008a 72B6     		CPSID   i
 237              	@ 0 "" 2
 238              	.LVL18:
 239              		.thumb
 240              		.syntax unified
 241              	.LBB3:
 294:Generated_Source\PSoC4/cyfitter_cfg.c **** 
 295:Generated_Source\PSoC4/cyfitter_cfg.c **** 	{
 296:Generated_Source\PSoC4/cyfitter_cfg.c **** 		static const uint32 CYCODE cy_cfg_addr_table[] = {
 297:Generated_Source\PSoC4/cyfitter_cfg.c **** 			0x400F0002u, /* Base address: 0x400F0000 Count: 2 */
 298:Generated_Source\PSoC4/cyfitter_cfg.c **** 			0x400F3050u, /* Base address: 0x400F3000 Count: 80 */
 299:Generated_Source\PSoC4/cyfitter_cfg.c **** 			0x400F3125u, /* Base address: 0x400F3100 Count: 37 */
 300:Generated_Source\PSoC4/cyfitter_cfg.c **** 			0x400F324Fu, /* Base address: 0x400F3200 Count: 79 */
 301:Generated_Source\PSoC4/cyfitter_cfg.c **** 			0x400F3331u, /* Base address: 0x400F3300 Count: 49 */
 302:Generated_Source\PSoC4/cyfitter_cfg.c **** 			0x400F4008u, /* Base address: 0x400F4000 Count: 8 */
 303:Generated_Source\PSoC4/cyfitter_cfg.c **** 			0x400F410Fu, /* Base address: 0x400F4100 Count: 15 */
 304:Generated_Source\PSoC4/cyfitter_cfg.c **** 			0x400F4204u, /* Base address: 0x400F4200 Count: 4 */
 305:Generated_Source\PSoC4/cyfitter_cfg.c **** 			0x400F6002u, /* Base address: 0x400F6000 Count: 2 */
 306:Generated_Source\PSoC4/cyfitter_cfg.c **** 		};
 307:Generated_Source\PSoC4/cyfitter_cfg.c **** 
 308:Generated_Source\PSoC4/cyfitter_cfg.c **** 		static const cy_cfg_addrvalue_t CYCODE cy_cfg_data_table[] = {
 309:Generated_Source\PSoC4/cyfitter_cfg.c **** 			{0x81u, 0x0Du},
 310:Generated_Source\PSoC4/cyfitter_cfg.c **** 			{0x83u, 0x0Du},
 311:Generated_Source\PSoC4/cyfitter_cfg.c **** 			{0x22u, 0x01u},
 312:Generated_Source\PSoC4/cyfitter_cfg.c **** 			{0x26u, 0x01u},
 313:Generated_Source\PSoC4/cyfitter_cfg.c **** 			{0x36u, 0x01u},
 314:Generated_Source\PSoC4/cyfitter_cfg.c **** 			{0x38u, 0x80u},
 315:Generated_Source\PSoC4/cyfitter_cfg.c **** 			{0x3Eu, 0x40u},
 316:Generated_Source\PSoC4/cyfitter_cfg.c **** 			{0x40u, 0x31u},
 317:Generated_Source\PSoC4/cyfitter_cfg.c **** 			{0x41u, 0x04u},
 318:Generated_Source\PSoC4/cyfitter_cfg.c **** 			{0x49u, 0xFFu},
 319:Generated_Source\PSoC4/cyfitter_cfg.c **** 			{0x4Au, 0xFFu},
 320:Generated_Source\PSoC4/cyfitter_cfg.c **** 			{0x4Bu, 0xFFu},
 321:Generated_Source\PSoC4/cyfitter_cfg.c **** 			{0x4Du, 0xA0u},
 322:Generated_Source\PSoC4/cyfitter_cfg.c **** 			{0x4Fu, 0x04u},
 323:Generated_Source\PSoC4/cyfitter_cfg.c **** 			{0x50u, 0x18u},
ARM GAS  C:\Users\PHYSLA~1\AppData\Local\Temp\cc7wy4om.s 			page 11


 324:Generated_Source\PSoC4/cyfitter_cfg.c **** 			{0x58u, 0x04u},
 325:Generated_Source\PSoC4/cyfitter_cfg.c **** 			{0x5Au, 0x04u},
 326:Generated_Source\PSoC4/cyfitter_cfg.c **** 			{0x5Du, 0x01u},
 327:Generated_Source\PSoC4/cyfitter_cfg.c **** 			{0x5Fu, 0x01u},
 328:Generated_Source\PSoC4/cyfitter_cfg.c **** 			{0x60u, 0x40u},
 329:Generated_Source\PSoC4/cyfitter_cfg.c **** 			{0x62u, 0xC0u},
 330:Generated_Source\PSoC4/cyfitter_cfg.c **** 			{0x64u, 0x40u},
 331:Generated_Source\PSoC4/cyfitter_cfg.c **** 			{0x65u, 0x40u},
 332:Generated_Source\PSoC4/cyfitter_cfg.c **** 			{0x66u, 0xC0u},
 333:Generated_Source\PSoC4/cyfitter_cfg.c **** 			{0x68u, 0xC0u},
 334:Generated_Source\PSoC4/cyfitter_cfg.c **** 			{0x6Au, 0xC0u},
 335:Generated_Source\PSoC4/cyfitter_cfg.c **** 			{0x6Cu, 0xC0u},
 336:Generated_Source\PSoC4/cyfitter_cfg.c **** 			{0x6Eu, 0xC0u},
 337:Generated_Source\PSoC4/cyfitter_cfg.c **** 			{0x81u, 0x06u},
 338:Generated_Source\PSoC4/cyfitter_cfg.c **** 			{0x85u, 0x06u},
 339:Generated_Source\PSoC4/cyfitter_cfg.c **** 			{0x8Au, 0x02u},
 340:Generated_Source\PSoC4/cyfitter_cfg.c **** 			{0x8Bu, 0x02u},
 341:Generated_Source\PSoC4/cyfitter_cfg.c **** 			{0x8Cu, 0x0Au},
 342:Generated_Source\PSoC4/cyfitter_cfg.c **** 			{0x93u, 0x01u},
 343:Generated_Source\PSoC4/cyfitter_cfg.c **** 			{0x94u, 0x02u},
 344:Generated_Source\PSoC4/cyfitter_cfg.c **** 			{0x96u, 0x0Du},
 345:Generated_Source\PSoC4/cyfitter_cfg.c **** 			{0x97u, 0x01u},
 346:Generated_Source\PSoC4/cyfitter_cfg.c **** 			{0x9Du, 0x04u},
 347:Generated_Source\PSoC4/cyfitter_cfg.c **** 			{0xA0u, 0x04u},
 348:Generated_Source\PSoC4/cyfitter_cfg.c **** 			{0xA2u, 0x09u},
 349:Generated_Source\PSoC4/cyfitter_cfg.c **** 			{0xA6u, 0x02u},
 350:Generated_Source\PSoC4/cyfitter_cfg.c **** 			{0xA8u, 0x02u},
 351:Generated_Source\PSoC4/cyfitter_cfg.c **** 			{0xB0u, 0x08u},
 352:Generated_Source\PSoC4/cyfitter_cfg.c **** 			{0xB2u, 0x06u},
 353:Generated_Source\PSoC4/cyfitter_cfg.c **** 			{0xB3u, 0x01u},
 354:Generated_Source\PSoC4/cyfitter_cfg.c **** 			{0xB4u, 0x01u},
 355:Generated_Source\PSoC4/cyfitter_cfg.c **** 			{0xB5u, 0x02u},
 356:Generated_Source\PSoC4/cyfitter_cfg.c **** 			{0xB6u, 0x01u},
 357:Generated_Source\PSoC4/cyfitter_cfg.c **** 			{0xB7u, 0x04u},
 358:Generated_Source\PSoC4/cyfitter_cfg.c **** 			{0xBAu, 0x02u},
 359:Generated_Source\PSoC4/cyfitter_cfg.c **** 			{0xBCu, 0x0Au},
 360:Generated_Source\PSoC4/cyfitter_cfg.c **** 			{0xBDu, 0x80u},
 361:Generated_Source\PSoC4/cyfitter_cfg.c **** 			{0xBEu, 0x10u},
 362:Generated_Source\PSoC4/cyfitter_cfg.c **** 			{0xC0u, 0x31u},
 363:Generated_Source\PSoC4/cyfitter_cfg.c **** 			{0xC1u, 0x04u},
 364:Generated_Source\PSoC4/cyfitter_cfg.c **** 			{0xC5u, 0xD1u},
 365:Generated_Source\PSoC4/cyfitter_cfg.c **** 			{0xC6u, 0x02u},
 366:Generated_Source\PSoC4/cyfitter_cfg.c **** 			{0xC8u, 0x27u},
 367:Generated_Source\PSoC4/cyfitter_cfg.c **** 			{0xC9u, 0xFFu},
 368:Generated_Source\PSoC4/cyfitter_cfg.c **** 			{0xCAu, 0xFFu},
 369:Generated_Source\PSoC4/cyfitter_cfg.c **** 			{0xCBu, 0xFFu},
 370:Generated_Source\PSoC4/cyfitter_cfg.c **** 			{0xCDu, 0xAFu},
 371:Generated_Source\PSoC4/cyfitter_cfg.c **** 			{0xCEu, 0x0Fu},
 372:Generated_Source\PSoC4/cyfitter_cfg.c **** 			{0xCFu, 0x04u},
 373:Generated_Source\PSoC4/cyfitter_cfg.c **** 			{0xD0u, 0x18u},
 374:Generated_Source\PSoC4/cyfitter_cfg.c **** 			{0xD4u, 0x05u},
 375:Generated_Source\PSoC4/cyfitter_cfg.c **** 			{0xD8u, 0x04u},
 376:Generated_Source\PSoC4/cyfitter_cfg.c **** 			{0xD9u, 0x04u},
 377:Generated_Source\PSoC4/cyfitter_cfg.c **** 			{0xDAu, 0x04u},
 378:Generated_Source\PSoC4/cyfitter_cfg.c **** 			{0xDBu, 0x04u},
 379:Generated_Source\PSoC4/cyfitter_cfg.c **** 			{0xDCu, 0x11u},
 380:Generated_Source\PSoC4/cyfitter_cfg.c **** 			{0xDDu, 0x11u},
ARM GAS  C:\Users\PHYSLA~1\AppData\Local\Temp\cc7wy4om.s 			page 12


 381:Generated_Source\PSoC4/cyfitter_cfg.c **** 			{0xDFu, 0x05u},
 382:Generated_Source\PSoC4/cyfitter_cfg.c **** 			{0xE0u, 0x40u},
 383:Generated_Source\PSoC4/cyfitter_cfg.c **** 			{0xE2u, 0xC0u},
 384:Generated_Source\PSoC4/cyfitter_cfg.c **** 			{0xE4u, 0x40u},
 385:Generated_Source\PSoC4/cyfitter_cfg.c **** 			{0xE5u, 0x40u},
 386:Generated_Source\PSoC4/cyfitter_cfg.c **** 			{0xE6u, 0xC0u},
 387:Generated_Source\PSoC4/cyfitter_cfg.c **** 			{0xE8u, 0xC0u},
 388:Generated_Source\PSoC4/cyfitter_cfg.c **** 			{0xEAu, 0xC0u},
 389:Generated_Source\PSoC4/cyfitter_cfg.c **** 			{0xECu, 0xC0u},
 390:Generated_Source\PSoC4/cyfitter_cfg.c **** 			{0xEEu, 0xC0u},
 391:Generated_Source\PSoC4/cyfitter_cfg.c **** 			{0x04u, 0x40u},
 392:Generated_Source\PSoC4/cyfitter_cfg.c **** 			{0x06u, 0x08u},
 393:Generated_Source\PSoC4/cyfitter_cfg.c **** 			{0x0Du, 0x08u},
 394:Generated_Source\PSoC4/cyfitter_cfg.c **** 			{0x13u, 0x0Au},
 395:Generated_Source\PSoC4/cyfitter_cfg.c **** 			{0x16u, 0x80u},
 396:Generated_Source\PSoC4/cyfitter_cfg.c **** 			{0x17u, 0x18u},
 397:Generated_Source\PSoC4/cyfitter_cfg.c **** 			{0x18u, 0x01u},
 398:Generated_Source\PSoC4/cyfitter_cfg.c **** 			{0x1Cu, 0x50u},
 399:Generated_Source\PSoC4/cyfitter_cfg.c **** 			{0x1Du, 0x88u},
 400:Generated_Source\PSoC4/cyfitter_cfg.c **** 			{0x1Eu, 0x09u},
 401:Generated_Source\PSoC4/cyfitter_cfg.c **** 			{0x1Fu, 0x40u},
 402:Generated_Source\PSoC4/cyfitter_cfg.c **** 			{0x25u, 0x20u},
 403:Generated_Source\PSoC4/cyfitter_cfg.c **** 			{0x26u, 0x40u},
 404:Generated_Source\PSoC4/cyfitter_cfg.c **** 			{0x27u, 0x10u},
 405:Generated_Source\PSoC4/cyfitter_cfg.c **** 			{0x36u, 0x80u},
 406:Generated_Source\PSoC4/cyfitter_cfg.c **** 			{0x37u, 0x0Au},
 407:Generated_Source\PSoC4/cyfitter_cfg.c **** 			{0x3Cu, 0x10u},
 408:Generated_Source\PSoC4/cyfitter_cfg.c **** 			{0x3Fu, 0x0Au},
 409:Generated_Source\PSoC4/cyfitter_cfg.c **** 			{0x40u, 0x10u},
 410:Generated_Source\PSoC4/cyfitter_cfg.c **** 			{0x42u, 0x81u},
 411:Generated_Source\PSoC4/cyfitter_cfg.c **** 			{0x45u, 0x88u},
 412:Generated_Source\PSoC4/cyfitter_cfg.c **** 			{0x46u, 0x80u},
 413:Generated_Source\PSoC4/cyfitter_cfg.c **** 			{0x4Fu, 0x09u},
 414:Generated_Source\PSoC4/cyfitter_cfg.c **** 			{0x56u, 0x80u},
 415:Generated_Source\PSoC4/cyfitter_cfg.c **** 			{0x57u, 0x01u},
 416:Generated_Source\PSoC4/cyfitter_cfg.c **** 			{0x5Eu, 0x88u},
 417:Generated_Source\PSoC4/cyfitter_cfg.c **** 			{0x5Fu, 0x01u},
 418:Generated_Source\PSoC4/cyfitter_cfg.c **** 			{0x7Fu, 0x40u},
 419:Generated_Source\PSoC4/cyfitter_cfg.c **** 			{0x8Bu, 0x08u},
 420:Generated_Source\PSoC4/cyfitter_cfg.c **** 			{0xC0u, 0xC0u},
 421:Generated_Source\PSoC4/cyfitter_cfg.c **** 			{0xC2u, 0x20u},
 422:Generated_Source\PSoC4/cyfitter_cfg.c **** 			{0xC4u, 0x7Cu},
 423:Generated_Source\PSoC4/cyfitter_cfg.c **** 			{0xCCu, 0xD0u},
 424:Generated_Source\PSoC4/cyfitter_cfg.c **** 			{0xCEu, 0xE0u},
 425:Generated_Source\PSoC4/cyfitter_cfg.c **** 			{0xD0u, 0xDBu},
 426:Generated_Source\PSoC4/cyfitter_cfg.c **** 			{0xD6u, 0xD0u},
 427:Generated_Source\PSoC4/cyfitter_cfg.c **** 			{0xDEu, 0x80u},
 428:Generated_Source\PSoC4/cyfitter_cfg.c **** 			{0x01u, 0x10u},
 429:Generated_Source\PSoC4/cyfitter_cfg.c **** 			{0x05u, 0x10u},
 430:Generated_Source\PSoC4/cyfitter_cfg.c **** 			{0x08u, 0x01u},
 431:Generated_Source\PSoC4/cyfitter_cfg.c **** 			{0x0Au, 0x02u},
 432:Generated_Source\PSoC4/cyfitter_cfg.c **** 			{0x0Cu, 0x02u},
 433:Generated_Source\PSoC4/cyfitter_cfg.c **** 			{0x0Eu, 0x05u},
 434:Generated_Source\PSoC4/cyfitter_cfg.c **** 			{0x15u, 0x01u},
 435:Generated_Source\PSoC4/cyfitter_cfg.c **** 			{0x17u, 0x02u},
 436:Generated_Source\PSoC4/cyfitter_cfg.c **** 			{0x1Au, 0x07u},
 437:Generated_Source\PSoC4/cyfitter_cfg.c **** 			{0x1Du, 0x04u},
ARM GAS  C:\Users\PHYSLA~1\AppData\Local\Temp\cc7wy4om.s 			page 13


 438:Generated_Source\PSoC4/cyfitter_cfg.c **** 			{0x1Fu, 0x02u},
 439:Generated_Source\PSoC4/cyfitter_cfg.c **** 			{0x20u, 0x04u},
 440:Generated_Source\PSoC4/cyfitter_cfg.c **** 			{0x22u, 0x02u},
 441:Generated_Source\PSoC4/cyfitter_cfg.c **** 			{0x23u, 0x07u},
 442:Generated_Source\PSoC4/cyfitter_cfg.c **** 			{0x2Du, 0x0Au},
 443:Generated_Source\PSoC4/cyfitter_cfg.c **** 			{0x2Fu, 0x05u},
 444:Generated_Source\PSoC4/cyfitter_cfg.c **** 			{0x30u, 0x07u},
 445:Generated_Source\PSoC4/cyfitter_cfg.c **** 			{0x31u, 0x07u},
 446:Generated_Source\PSoC4/cyfitter_cfg.c **** 			{0x35u, 0x08u},
 447:Generated_Source\PSoC4/cyfitter_cfg.c **** 			{0x36u, 0x07u},
 448:Generated_Source\PSoC4/cyfitter_cfg.c **** 			{0x37u, 0x10u},
 449:Generated_Source\PSoC4/cyfitter_cfg.c **** 			{0x3Eu, 0x01u},
 450:Generated_Source\PSoC4/cyfitter_cfg.c **** 			{0x3Fu, 0x11u},
 451:Generated_Source\PSoC4/cyfitter_cfg.c **** 			{0x40u, 0x65u},
 452:Generated_Source\PSoC4/cyfitter_cfg.c **** 			{0x49u, 0xFFu},
 453:Generated_Source\PSoC4/cyfitter_cfg.c **** 			{0x4Au, 0xFFu},
 454:Generated_Source\PSoC4/cyfitter_cfg.c **** 			{0x4Bu, 0xFFu},
 455:Generated_Source\PSoC4/cyfitter_cfg.c **** 			{0x4Fu, 0x01u},
 456:Generated_Source\PSoC4/cyfitter_cfg.c **** 			{0x50u, 0x18u},
 457:Generated_Source\PSoC4/cyfitter_cfg.c **** 			{0x58u, 0x04u},
 458:Generated_Source\PSoC4/cyfitter_cfg.c **** 			{0x59u, 0x04u},
 459:Generated_Source\PSoC4/cyfitter_cfg.c **** 			{0x5Au, 0x04u},
 460:Generated_Source\PSoC4/cyfitter_cfg.c **** 			{0x5Cu, 0x13u},
 461:Generated_Source\PSoC4/cyfitter_cfg.c **** 			{0x5Du, 0x03u},
 462:Generated_Source\PSoC4/cyfitter_cfg.c **** 			{0x5Fu, 0x01u},
 463:Generated_Source\PSoC4/cyfitter_cfg.c **** 			{0x60u, 0x40u},
 464:Generated_Source\PSoC4/cyfitter_cfg.c **** 			{0x62u, 0x40u},
 465:Generated_Source\PSoC4/cyfitter_cfg.c **** 			{0x64u, 0x40u},
 466:Generated_Source\PSoC4/cyfitter_cfg.c **** 			{0x65u, 0x40u},
 467:Generated_Source\PSoC4/cyfitter_cfg.c **** 			{0x66u, 0x80u},
 468:Generated_Source\PSoC4/cyfitter_cfg.c **** 			{0x68u, 0x80u},
 469:Generated_Source\PSoC4/cyfitter_cfg.c **** 			{0x6Au, 0x80u},
 470:Generated_Source\PSoC4/cyfitter_cfg.c **** 			{0x6Cu, 0x80u},
 471:Generated_Source\PSoC4/cyfitter_cfg.c **** 			{0x6Eu, 0x80u},
 472:Generated_Source\PSoC4/cyfitter_cfg.c **** 			{0x8Cu, 0x02u},
 473:Generated_Source\PSoC4/cyfitter_cfg.c **** 			{0x8Eu, 0x05u},
 474:Generated_Source\PSoC4/cyfitter_cfg.c **** 			{0xA0u, 0x04u},
 475:Generated_Source\PSoC4/cyfitter_cfg.c **** 			{0xA2u, 0x02u},
 476:Generated_Source\PSoC4/cyfitter_cfg.c **** 			{0xA4u, 0x01u},
 477:Generated_Source\PSoC4/cyfitter_cfg.c **** 			{0xA6u, 0x02u},
 478:Generated_Source\PSoC4/cyfitter_cfg.c **** 			{0xB4u, 0x07u},
 479:Generated_Source\PSoC4/cyfitter_cfg.c **** 			{0xBEu, 0x10u},
 480:Generated_Source\PSoC4/cyfitter_cfg.c **** 			{0xC0u, 0x25u},
 481:Generated_Source\PSoC4/cyfitter_cfg.c **** 			{0xC5u, 0xECu},
 482:Generated_Source\PSoC4/cyfitter_cfg.c **** 			{0xC6u, 0x20u},
 483:Generated_Source\PSoC4/cyfitter_cfg.c **** 			{0xC7u, 0x20u},
 484:Generated_Source\PSoC4/cyfitter_cfg.c **** 			{0xC8u, 0x2Bu},
 485:Generated_Source\PSoC4/cyfitter_cfg.c **** 			{0xC9u, 0xFFu},
 486:Generated_Source\PSoC4/cyfitter_cfg.c **** 			{0xCAu, 0xFFu},
 487:Generated_Source\PSoC4/cyfitter_cfg.c **** 			{0xCBu, 0xFFu},
 488:Generated_Source\PSoC4/cyfitter_cfg.c **** 			{0xCDu, 0x83u},
 489:Generated_Source\PSoC4/cyfitter_cfg.c **** 			{0xCEu, 0x03u},
 490:Generated_Source\PSoC4/cyfitter_cfg.c **** 			{0xCFu, 0x01u},
 491:Generated_Source\PSoC4/cyfitter_cfg.c **** 			{0xD0u, 0x18u},
 492:Generated_Source\PSoC4/cyfitter_cfg.c **** 			{0xD4u, 0x01u},
 493:Generated_Source\PSoC4/cyfitter_cfg.c **** 			{0xD8u, 0x04u},
 494:Generated_Source\PSoC4/cyfitter_cfg.c **** 			{0xDAu, 0x04u},
ARM GAS  C:\Users\PHYSLA~1\AppData\Local\Temp\cc7wy4om.s 			page 14


 495:Generated_Source\PSoC4/cyfitter_cfg.c **** 			{0xDBu, 0x04u},
 496:Generated_Source\PSoC4/cyfitter_cfg.c **** 			{0xDDu, 0x33u},
 497:Generated_Source\PSoC4/cyfitter_cfg.c **** 			{0xDFu, 0x01u},
 498:Generated_Source\PSoC4/cyfitter_cfg.c **** 			{0xE0u, 0x40u},
 499:Generated_Source\PSoC4/cyfitter_cfg.c **** 			{0xE2u, 0x40u},
 500:Generated_Source\PSoC4/cyfitter_cfg.c **** 			{0xE4u, 0x40u},
 501:Generated_Source\PSoC4/cyfitter_cfg.c **** 			{0xE5u, 0x40u},
 502:Generated_Source\PSoC4/cyfitter_cfg.c **** 			{0xE6u, 0x80u},
 503:Generated_Source\PSoC4/cyfitter_cfg.c **** 			{0xE8u, 0x80u},
 504:Generated_Source\PSoC4/cyfitter_cfg.c **** 			{0xEAu, 0x80u},
 505:Generated_Source\PSoC4/cyfitter_cfg.c **** 			{0xECu, 0x80u},
 506:Generated_Source\PSoC4/cyfitter_cfg.c **** 			{0xEEu, 0x80u},
 507:Generated_Source\PSoC4/cyfitter_cfg.c **** 			{0x01u, 0x80u},
 508:Generated_Source\PSoC4/cyfitter_cfg.c **** 			{0x05u, 0x80u},
 509:Generated_Source\PSoC4/cyfitter_cfg.c **** 			{0x07u, 0x08u},
 510:Generated_Source\PSoC4/cyfitter_cfg.c **** 			{0x0Du, 0x20u},
 511:Generated_Source\PSoC4/cyfitter_cfg.c **** 			{0x10u, 0x40u},
 512:Generated_Source\PSoC4/cyfitter_cfg.c **** 			{0x13u, 0x0Au},
 513:Generated_Source\PSoC4/cyfitter_cfg.c **** 			{0x17u, 0x02u},
 514:Generated_Source\PSoC4/cyfitter_cfg.c **** 			{0x18u, 0x08u},
 515:Generated_Source\PSoC4/cyfitter_cfg.c **** 			{0x1Bu, 0x20u},
 516:Generated_Source\PSoC4/cyfitter_cfg.c **** 			{0x1Eu, 0x40u},
 517:Generated_Source\PSoC4/cyfitter_cfg.c **** 			{0x1Fu, 0x80u},
 518:Generated_Source\PSoC4/cyfitter_cfg.c **** 			{0x26u, 0x90u},
 519:Generated_Source\PSoC4/cyfitter_cfg.c **** 			{0x27u, 0x80u},
 520:Generated_Source\PSoC4/cyfitter_cfg.c **** 			{0x2Du, 0x80u},
 521:Generated_Source\PSoC4/cyfitter_cfg.c **** 			{0x2Fu, 0x80u},
 522:Generated_Source\PSoC4/cyfitter_cfg.c **** 			{0x34u, 0x40u},
 523:Generated_Source\PSoC4/cyfitter_cfg.c **** 			{0x37u, 0x08u},
 524:Generated_Source\PSoC4/cyfitter_cfg.c **** 			{0x3Fu, 0x0Au},
 525:Generated_Source\PSoC4/cyfitter_cfg.c **** 			{0x43u, 0x20u},
 526:Generated_Source\PSoC4/cyfitter_cfg.c **** 			{0x48u, 0x02u},
 527:Generated_Source\PSoC4/cyfitter_cfg.c **** 			{0x49u, 0x05u},
 528:Generated_Source\PSoC4/cyfitter_cfg.c **** 			{0x4Cu, 0x04u},
 529:Generated_Source\PSoC4/cyfitter_cfg.c **** 			{0x4Eu, 0x02u},
 530:Generated_Source\PSoC4/cyfitter_cfg.c **** 			{0x50u, 0x02u},
 531:Generated_Source\PSoC4/cyfitter_cfg.c **** 			{0x51u, 0x20u},
 532:Generated_Source\PSoC4/cyfitter_cfg.c **** 			{0x52u, 0x02u},
 533:Generated_Source\PSoC4/cyfitter_cfg.c **** 			{0x59u, 0x05u},
 534:Generated_Source\PSoC4/cyfitter_cfg.c **** 			{0x5Au, 0x40u},
 535:Generated_Source\PSoC4/cyfitter_cfg.c **** 			{0x81u, 0x80u},
 536:Generated_Source\PSoC4/cyfitter_cfg.c **** 			{0x86u, 0x10u},
 537:Generated_Source\PSoC4/cyfitter_cfg.c **** 			{0x8Bu, 0x80u},
 538:Generated_Source\PSoC4/cyfitter_cfg.c **** 			{0x9Bu, 0x0Au},
 539:Generated_Source\PSoC4/cyfitter_cfg.c **** 			{0xA3u, 0x05u},
 540:Generated_Source\PSoC4/cyfitter_cfg.c **** 			{0xA6u, 0x80u},
 541:Generated_Source\PSoC4/cyfitter_cfg.c **** 			{0xAAu, 0x08u},
 542:Generated_Source\PSoC4/cyfitter_cfg.c **** 			{0xABu, 0x02u},
 543:Generated_Source\PSoC4/cyfitter_cfg.c **** 			{0xB4u, 0x01u},
 544:Generated_Source\PSoC4/cyfitter_cfg.c **** 			{0xB5u, 0x20u},
 545:Generated_Source\PSoC4/cyfitter_cfg.c **** 			{0xC0u, 0xC1u},
 546:Generated_Source\PSoC4/cyfitter_cfg.c **** 			{0xC2u, 0x40u},
 547:Generated_Source\PSoC4/cyfitter_cfg.c **** 			{0xC4u, 0x1Cu},
 548:Generated_Source\PSoC4/cyfitter_cfg.c **** 			{0xCAu, 0x90u},
 549:Generated_Source\PSoC4/cyfitter_cfg.c **** 			{0xCCu, 0x50u},
 550:Generated_Source\PSoC4/cyfitter_cfg.c **** 			{0xCEu, 0xC0u},
 551:Generated_Source\PSoC4/cyfitter_cfg.c **** 			{0xD0u, 0x04u},
ARM GAS  C:\Users\PHYSLA~1\AppData\Local\Temp\cc7wy4om.s 			page 15


 552:Generated_Source\PSoC4/cyfitter_cfg.c **** 			{0xD2u, 0x38u},
 553:Generated_Source\PSoC4/cyfitter_cfg.c **** 			{0xD6u, 0x0Bu},
 554:Generated_Source\PSoC4/cyfitter_cfg.c **** 			{0xE6u, 0x20u},
 555:Generated_Source\PSoC4/cyfitter_cfg.c **** 			{0xEEu, 0x50u},
 556:Generated_Source\PSoC4/cyfitter_cfg.c **** 			{0x05u, 0x04u},
 557:Generated_Source\PSoC4/cyfitter_cfg.c **** 			{0x51u, 0x10u},
 558:Generated_Source\PSoC4/cyfitter_cfg.c **** 			{0x62u, 0x01u},
 559:Generated_Source\PSoC4/cyfitter_cfg.c **** 			{0x66u, 0x80u},
 560:Generated_Source\PSoC4/cyfitter_cfg.c **** 			{0xC0u, 0x20u},
 561:Generated_Source\PSoC4/cyfitter_cfg.c **** 			{0xD4u, 0x20u},
 562:Generated_Source\PSoC4/cyfitter_cfg.c **** 			{0xD6u, 0x80u},
 563:Generated_Source\PSoC4/cyfitter_cfg.c **** 			{0xD8u, 0x40u},
 564:Generated_Source\PSoC4/cyfitter_cfg.c **** 			{0x07u, 0x10u},
 565:Generated_Source\PSoC4/cyfitter_cfg.c **** 			{0x5Bu, 0x10u},
 566:Generated_Source\PSoC4/cyfitter_cfg.c **** 			{0x63u, 0x02u},
 567:Generated_Source\PSoC4/cyfitter_cfg.c **** 			{0x83u, 0x10u},
 568:Generated_Source\PSoC4/cyfitter_cfg.c **** 			{0x87u, 0x01u},
 569:Generated_Source\PSoC4/cyfitter_cfg.c **** 			{0x89u, 0x10u},
 570:Generated_Source\PSoC4/cyfitter_cfg.c **** 			{0x95u, 0x20u},
 571:Generated_Source\PSoC4/cyfitter_cfg.c **** 			{0xA9u, 0x04u},
 572:Generated_Source\PSoC4/cyfitter_cfg.c **** 			{0xB6u, 0x81u},
 573:Generated_Source\PSoC4/cyfitter_cfg.c **** 			{0xC0u, 0x20u},
 574:Generated_Source\PSoC4/cyfitter_cfg.c **** 			{0xD4u, 0x80u},
 575:Generated_Source\PSoC4/cyfitter_cfg.c **** 			{0xD6u, 0x40u},
 576:Generated_Source\PSoC4/cyfitter_cfg.c **** 			{0xE0u, 0x20u},
 577:Generated_Source\PSoC4/cyfitter_cfg.c **** 			{0xE6u, 0x10u},
 578:Generated_Source\PSoC4/cyfitter_cfg.c **** 			{0xECu, 0x80u},
 579:Generated_Source\PSoC4/cyfitter_cfg.c **** 			{0x02u, 0x08u},
 580:Generated_Source\PSoC4/cyfitter_cfg.c **** 			{0x8Au, 0x08u},
 581:Generated_Source\PSoC4/cyfitter_cfg.c **** 			{0xC0u, 0x02u},
 582:Generated_Source\PSoC4/cyfitter_cfg.c **** 			{0xE6u, 0x01u},
 583:Generated_Source\PSoC4/cyfitter_cfg.c **** 			{0x01u, 0x0Au},
 584:Generated_Source\PSoC4/cyfitter_cfg.c **** 			{0x10u, 0x0Au},
 585:Generated_Source\PSoC4/cyfitter_cfg.c **** 		};
 586:Generated_Source\PSoC4/cyfitter_cfg.c **** 
 587:Generated_Source\PSoC4/cyfitter_cfg.c **** 
 588:Generated_Source\PSoC4/cyfitter_cfg.c **** 
 589:Generated_Source\PSoC4/cyfitter_cfg.c **** 		CYPACKED typedef struct {
 590:Generated_Source\PSoC4/cyfitter_cfg.c **** 			void CYFAR *address;
 591:Generated_Source\PSoC4/cyfitter_cfg.c **** 			uint16 size;
 592:Generated_Source\PSoC4/cyfitter_cfg.c **** 		} CYPACKED_ATTR cfg_memset_t;
 593:Generated_Source\PSoC4/cyfitter_cfg.c **** 
 594:Generated_Source\PSoC4/cyfitter_cfg.c **** 		static const cfg_memset_t CYCODE cfg_memset_list[] = {
 595:Generated_Source\PSoC4/cyfitter_cfg.c **** 			/* address, size */
 596:Generated_Source\PSoC4/cyfitter_cfg.c **** 			{(void CYFAR *)(CYDEV_UDB_P0_U0_BASE), 1024u},
 597:Generated_Source\PSoC4/cyfitter_cfg.c **** 			{(void CYFAR *)(CYDEV_UDB_DSI0_BASE), 1024u},
 598:Generated_Source\PSoC4/cyfitter_cfg.c **** 		};
 599:Generated_Source\PSoC4/cyfitter_cfg.c **** 
 600:Generated_Source\PSoC4/cyfitter_cfg.c **** 		uint8 CYDATA i;
 601:Generated_Source\PSoC4/cyfitter_cfg.c **** 
 602:Generated_Source\PSoC4/cyfitter_cfg.c **** 		/* Zero out critical memory blocks before beginning configuration */
 603:Generated_Source\PSoC4/cyfitter_cfg.c **** 		for (i = 0u; i < (sizeof(cfg_memset_list)/sizeof(cfg_memset_list[0])); i++)
 242              		.loc 1 603 0
 243 008c 0024     		movs	r4, #0
 244 008e 0FE0     		b	.L11
 245              	.LVL19:
 246              	.L12:
ARM GAS  C:\Users\PHYSLA~1\AppData\Local\Temp\cc7wy4om.s 			page 16


 247              	.LBB4:
 604:Generated_Source\PSoC4/cyfitter_cfg.c **** 		{
 605:Generated_Source\PSoC4/cyfitter_cfg.c **** 			const cfg_memset_t CYCODE * CYDATA ms = &cfg_memset_list[i];
 606:Generated_Source\PSoC4/cyfitter_cfg.c **** 			CYMEMZERO(ms->address, (size_t)(uint32)(ms->size));
 248              		.loc 1 606 0 discriminator 3
 249 0090 2E48     		ldr	r0, .L13
 250 0092 6200     		lsls	r2, r4, #1
 251 0094 1319     		adds	r3, r2, r4
 252 0096 5900     		lsls	r1, r3, #1
 253 0098 0B00     		movs	r3, r1
 254 009a 4118     		adds	r1, r0, r1
 255 009c 8988     		ldrh	r1, [r1, #4]
 256 009e 1A5A     		ldrh	r2, [r3, r0]
 257 00a0 C318     		adds	r3, r0, r3
 258 00a2 5888     		ldrh	r0, [r3, #2]
 259 00a4 0004     		lsls	r0, r0, #16
 260 00a6 1043     		orrs	r0, r2
 261 00a8 FFF7FEFF 		bl	CYMEMZERO
 262              	.LVL20:
 263              	.LBE4:
 603:Generated_Source\PSoC4/cyfitter_cfg.c **** 		{
 264              		.loc 1 603 0 discriminator 3
 265 00ac 0134     		adds	r4, r4, #1
 266              	.LVL21:
 267 00ae E4B2     		uxtb	r4, r4
 268              	.LVL22:
 269              	.L11:
 603:Generated_Source\PSoC4/cyfitter_cfg.c **** 		{
 270              		.loc 1 603 0 is_stmt 0 discriminator 1
 271 00b0 012C     		cmp	r4, #1
 272 00b2 EDD9     		bls	.L12
 607:Generated_Source\PSoC4/cyfitter_cfg.c **** 		}
 608:Generated_Source\PSoC4/cyfitter_cfg.c **** 
 609:Generated_Source\PSoC4/cyfitter_cfg.c **** 		cfg_write_bytes32(cy_cfg_addr_table, cy_cfg_data_table);
 273              		.loc 1 609 0 is_stmt 1
 274 00b4 2549     		ldr	r1, .L13
 275 00b6 0C31     		adds	r1, r1, #12
 276 00b8 2548     		ldr	r0, .L13+4
 277 00ba 3430     		adds	r0, r0, #52
 278 00bc FFF7FEFF 		bl	cfg_write_bytes32
 279              	.LVL23:
 610:Generated_Source\PSoC4/cyfitter_cfg.c **** 
 611:Generated_Source\PSoC4/cyfitter_cfg.c **** 		/* HSIOM Starting address: CYDEV_HSIOM_BASE */
 612:Generated_Source\PSoC4/cyfitter_cfg.c **** 		CY_SET_REG32((void *)(CYDEV_HSIOM_BASE), 0x00330003u);
 280              		.loc 1 612 0
 281 00c0 244A     		ldr	r2, .L13+8
 282 00c2 254B     		ldr	r3, .L13+12
 283 00c4 1A60     		str	r2, [r3]
 613:Generated_Source\PSoC4/cyfitter_cfg.c **** 		CY_SET_REG32((void *)(CYREG_HSIOM_PORT_SEL1), 0x00033000u);
 284              		.loc 1 613 0
 285 00c6 CC22     		movs	r2, #204
 286 00c8 9202     		lsls	r2, r2, #10
 287 00ca 244B     		ldr	r3, .L13+16
 288 00cc 1A60     		str	r2, [r3]
 614:Generated_Source\PSoC4/cyfitter_cfg.c **** 		CY_SET_REG32((void *)(CYREG_HSIOM_PORT_SEL3), 0x0000EE00u);
 289              		.loc 1 614 0
 290 00ce EE22     		movs	r2, #238
ARM GAS  C:\Users\PHYSLA~1\AppData\Local\Temp\cc7wy4om.s 			page 17


 291 00d0 1202     		lsls	r2, r2, #8
 292 00d2 234B     		ldr	r3, .L13+20
 293 00d4 1A60     		str	r2, [r3]
 615:Generated_Source\PSoC4/cyfitter_cfg.c **** 
 616:Generated_Source\PSoC4/cyfitter_cfg.c **** 		/* UDB_PA_0 Starting address: CYDEV_UDB_PA0_BASE */
 617:Generated_Source\PSoC4/cyfitter_cfg.c **** 		CY_SET_REG32((void *)(CYDEV_UDB_PA0_BASE), 0x00990000u);
 294              		.loc 1 617 0
 295 00d6 9923     		movs	r3, #153
 296 00d8 1B04     		lsls	r3, r3, #16
 297 00da 224A     		ldr	r2, .L13+24
 298 00dc 1360     		str	r3, [r2]
 618:Generated_Source\PSoC4/cyfitter_cfg.c **** 		CY_SET_REG32((void *)(CYREG_UDB_PA0_CFG8), 0x06540000u);
 299              		.loc 1 618 0
 300 00de 2249     		ldr	r1, .L13+28
 301 00e0 224A     		ldr	r2, .L13+32
 302 00e2 1160     		str	r1, [r2]
 619:Generated_Source\PSoC4/cyfitter_cfg.c **** 
 620:Generated_Source\PSoC4/cyfitter_cfg.c **** 		/* UDB_PA_1 Starting address: CYDEV_UDB_PA1_BASE */
 621:Generated_Source\PSoC4/cyfitter_cfg.c **** 		CY_SET_REG32((void *)(CYDEV_UDB_PA1_BASE), 0x00990000u);
 303              		.loc 1 621 0
 304 00e4 224A     		ldr	r2, .L13+36
 305 00e6 1360     		str	r3, [r2]
 622:Generated_Source\PSoC4/cyfitter_cfg.c **** 		CY_SET_REG32((void *)(CYREG_UDB_PA1_CFG8), 0x54800000u);
 306              		.loc 1 622 0
 307 00e8 A921     		movs	r1, #169
 308 00ea C905     		lsls	r1, r1, #23
 309 00ec 214A     		ldr	r2, .L13+40
 310 00ee 1160     		str	r1, [r2]
 623:Generated_Source\PSoC4/cyfitter_cfg.c **** 
 624:Generated_Source\PSoC4/cyfitter_cfg.c **** 		/* UDB_PA_2 Starting address: CYDEV_UDB_PA2_BASE */
 625:Generated_Source\PSoC4/cyfitter_cfg.c **** 		CY_SET_REG32((void *)(CYDEV_UDB_PA2_BASE), 0x00990000u);
 311              		.loc 1 625 0
 312 00f0 214A     		ldr	r2, .L13+44
 313 00f2 1360     		str	r3, [r2]
 626:Generated_Source\PSoC4/cyfitter_cfg.c **** 
 627:Generated_Source\PSoC4/cyfitter_cfg.c **** 		/* UDB_PA_3 Starting address: CYDEV_UDB_PA3_BASE */
 628:Generated_Source\PSoC4/cyfitter_cfg.c **** 		CY_SET_REG32((void *)(CYDEV_UDB_PA3_BASE), 0x00990000u);
 314              		.loc 1 628 0
 315 00f4 214A     		ldr	r2, .L13+48
 316 00f6 1360     		str	r3, [r2]
 629:Generated_Source\PSoC4/cyfitter_cfg.c **** 
 630:Generated_Source\PSoC4/cyfitter_cfg.c **** 		/* UDB_P0_U1_CFG24 Starting address: CYDEV_UDB_P0_U1_CFG24 */
 631:Generated_Source\PSoC4/cyfitter_cfg.c **** 		CY_SET_REG32((void *)(CYREG_UDB_P0_U1_CFG24), 0xC404C4C4u);
 317              		.loc 1 631 0
 318 00f8 214A     		ldr	r2, .L13+52
 319 00fa 224B     		ldr	r3, .L13+56
 320 00fc 1A60     		str	r2, [r3]
 632:Generated_Source\PSoC4/cyfitter_cfg.c **** 
 633:Generated_Source\PSoC4/cyfitter_cfg.c **** 		/* Enable UDB array and digital routing */
 634:Generated_Source\PSoC4/cyfitter_cfg.c **** 		CY_SET_XTND_REG8((void *)CYREG_UDB_UDBIF_WAIT_CFG, (uint8)((CY_GET_XTND_REG8((void *)CYREG_UDB_UD
 321              		.loc 1 634 0
 322 00fe 2249     		ldr	r1, .L13+60
 323 0100 0B78     		ldrb	r3, [r1]
 324 0102 3C22     		movs	r2, #60
 325 0104 9343     		bics	r3, r2
 326 0106 1422     		movs	r2, #20
 327 0108 1343     		orrs	r3, r2
ARM GAS  C:\Users\PHYSLA~1\AppData\Local\Temp\cc7wy4om.s 			page 18


 328 010a DBB2     		uxtb	r3, r3
 329 010c 0B70     		strb	r3, [r1]
 635:Generated_Source\PSoC4/cyfitter_cfg.c **** 		CY_SET_XTND_REG8((void *)CYREG_UDB_UDBIF_BANK_CTL, (uint8)(CY_GET_XTND_REG8((void *)CYREG_UDB_UDB
 330              		.loc 1 635 0
 331 010e 1F4A     		ldr	r2, .L13+64
 332 0110 1178     		ldrb	r1, [r2]
 333 0112 1623     		movs	r3, #22
 334 0114 0B43     		orrs	r3, r1
 335 0116 DBB2     		uxtb	r3, r3
 336 0118 1370     		strb	r3, [r2]
 337              	.LBE3:
 636:Generated_Source\PSoC4/cyfitter_cfg.c **** 	}
 637:Generated_Source\PSoC4/cyfitter_cfg.c **** 
 638:Generated_Source\PSoC4/cyfitter_cfg.c **** 	/* Perform second pass device configuration. These items must be configured in specific order afte
 639:Generated_Source\PSoC4/cyfitter_cfg.c **** 	/* IOPINS0_0 Starting address: CYDEV_PRT0_BASE */
 640:Generated_Source\PSoC4/cyfitter_cfg.c **** 	CY_SET_REG32((void *)(CYDEV_PRT0_BASE), 0x00000031u);
 338              		.loc 1 640 0
 339 011a 3122     		movs	r2, #49
 340 011c 1C4B     		ldr	r3, .L13+68
 341 011e 1A60     		str	r2, [r3]
 641:Generated_Source\PSoC4/cyfitter_cfg.c **** 	CY_SET_REG32((void *)(CYREG_PRT0_PC), 0x0003601Eu);
 342              		.loc 1 641 0
 343 0120 1C4A     		ldr	r2, .L13+72
 344 0122 1D4B     		ldr	r3, .L13+76
 345 0124 1A60     		str	r2, [r3]
 642:Generated_Source\PSoC4/cyfitter_cfg.c **** 
 643:Generated_Source\PSoC4/cyfitter_cfg.c **** 	/* IOPINS0_1 Starting address: CYDEV_PRT1_BASE */
 644:Generated_Source\PSoC4/cyfitter_cfg.c **** 	CY_SET_REG32((void *)(CYDEV_PRT1_BASE), 0x00000018u);
 346              		.loc 1 644 0
 347 0126 1822     		movs	r2, #24
 348 0128 1C4B     		ldr	r3, .L13+80
 349 012a 1A60     		str	r2, [r3]
 645:Generated_Source\PSoC4/cyfitter_cfg.c **** 	CY_SET_REG32((void *)(CYREG_PRT1_PC), 0x00006C18u);
 350              		.loc 1 645 0
 351 012c 1C4A     		ldr	r2, .L13+84
 352 012e 1D4B     		ldr	r3, .L13+88
 353 0130 1A60     		str	r2, [r3]
 646:Generated_Source\PSoC4/cyfitter_cfg.c **** 
 647:Generated_Source\PSoC4/cyfitter_cfg.c **** 	/* IOPINS0_2 Starting address: CYDEV_PRT2_BASE */
 648:Generated_Source\PSoC4/cyfitter_cfg.c **** 	CY_SET_REG32((void *)(CYDEV_PRT2_BASE), 0x00000004u);
 354              		.loc 1 648 0
 355 0132 0422     		movs	r2, #4
 356 0134 1C4B     		ldr	r3, .L13+92
 357 0136 1A60     		str	r2, [r3]
 649:Generated_Source\PSoC4/cyfitter_cfg.c **** 	CY_SET_REG32((void *)(CYREG_PRT2_PC), 0x00000080u);
 358              		.loc 1 649 0
 359 0138 7C32     		adds	r2, r2, #124
 360 013a 1C4B     		ldr	r3, .L13+96
 361 013c 1A60     		str	r2, [r3]
 650:Generated_Source\PSoC4/cyfitter_cfg.c **** 
 651:Generated_Source\PSoC4/cyfitter_cfg.c **** 	/* IOPINS0_3 Starting address: CYDEV_PRT3_BASE */
 652:Generated_Source\PSoC4/cyfitter_cfg.c **** 	CY_SET_REG32((void *)(CYREG_PRT3_PC), 0x00000D80u);
 362              		.loc 1 652 0
 363 013e D822     		movs	r2, #216
 364 0140 1201     		lsls	r2, r2, #4
 365 0142 1B4B     		ldr	r3, .L13+100
 366 0144 1A60     		str	r2, [r3]
ARM GAS  C:\Users\PHYSLA~1\AppData\Local\Temp\cc7wy4om.s 			page 19


 653:Generated_Source\PSoC4/cyfitter_cfg.c **** 
 654:Generated_Source\PSoC4/cyfitter_cfg.c **** 
 655:Generated_Source\PSoC4/cyfitter_cfg.c **** 	/* Setup clocks based on selections from Clock DWR */
 656:Generated_Source\PSoC4/cyfitter_cfg.c **** 	ClockSetup();
 367              		.loc 1 656 0
 368 0146 FFF75BFF 		bl	ClockSetup
 369              	.LVL24:
 657:Generated_Source\PSoC4/cyfitter_cfg.c **** 
 658:Generated_Source\PSoC4/cyfitter_cfg.c **** 	/* Perform basic analog initialization to defaults */
 659:Generated_Source\PSoC4/cyfitter_cfg.c **** 	AnalogSetDefault();
 660:Generated_Source\PSoC4/cyfitter_cfg.c **** 
 661:Generated_Source\PSoC4/cyfitter_cfg.c **** }
 370              		.loc 1 661 0
 371              		@ sp needed
 372              	.LVL25:
 373 014a 10BD     		pop	{r4, pc}
 374              	.L14:
 375              		.align	2
 376              	.L13:
 377 014c 00000000 		.word	.LANCHOR0
 378 0150 00020000 		.word	.LANCHOR1
 379 0154 03003300 		.word	3342339
 380 0158 00000140 		.word	1073807360
 381 015c 04000140 		.word	1073807364
 382 0160 0C000140 		.word	1073807372
 383 0164 00500F40 		.word	1074745344
 384 0168 00005406 		.word	106168320
 385 016c 08500F40 		.word	1074745352
 386 0170 10500F40 		.word	1074745360
 387 0174 18500F40 		.word	1074745368
 388 0178 20500F40 		.word	1074745376
 389 017c 30500F40 		.word	1074745392
 390 0180 C4C404C4 		.word	-1006320444
 391 0184 D8300F40 		.word	1074737368
 392 0188 01700F40 		.word	1074753537
 393 018c 00700F40 		.word	1074753536
 394 0190 00000440 		.word	1074003968
 395 0194 1E600300 		.word	221214
 396 0198 08000440 		.word	1074003976
 397 019c 00010440 		.word	1074004224
 398 01a0 186C0000 		.word	27672
 399 01a4 08010440 		.word	1074004232
 400 01a8 00020440 		.word	1074004480
 401 01ac 08020440 		.word	1074004488
 402 01b0 08030440 		.word	1074004744
 403              		.cfi_endproc
 404              	.LFE6:
 405              		.size	cyfitter_cfg, .-cyfitter_cfg
 406              		.section	.rodata
 407              		.align	2
 408              		.set	.LANCHOR0,. + 0
 409              		.set	.LANCHOR1,. + 512
 410              		.type	cfg_memset_list.4870, %object
 411              		.size	cfg_memset_list.4870, 12
 412              	cfg_memset_list.4870:
 413 0000 00300F40 		.word	1074737152
 414 0004 0004     		.short	1024
ARM GAS  C:\Users\PHYSLA~1\AppData\Local\Temp\cc7wy4om.s 			page 20


 415 0006 00400F40 		.4byte	1074741248
 416 000a 0004     		.short	1024
 417              		.type	cy_cfg_data_table.4865, %object
 418              		.size	cy_cfg_data_table.4865, 552
 419              	cy_cfg_data_table.4865:
 420 000c 81       		.byte	-127
 421 000d 0D       		.byte	13
 422 000e 83       		.byte	-125
 423 000f 0D       		.byte	13
 424 0010 22       		.byte	34
 425 0011 01       		.byte	1
 426 0012 26       		.byte	38
 427 0013 01       		.byte	1
 428 0014 36       		.byte	54
 429 0015 01       		.byte	1
 430 0016 38       		.byte	56
 431 0017 80       		.byte	-128
 432 0018 3E       		.byte	62
 433 0019 40       		.byte	64
 434 001a 40       		.byte	64
 435 001b 31       		.byte	49
 436 001c 41       		.byte	65
 437 001d 04       		.byte	4
 438 001e 49       		.byte	73
 439 001f FF       		.byte	-1
 440 0020 4A       		.byte	74
 441 0021 FF       		.byte	-1
 442 0022 4B       		.byte	75
 443 0023 FF       		.byte	-1
 444 0024 4D       		.byte	77
 445 0025 A0       		.byte	-96
 446 0026 4F       		.byte	79
 447 0027 04       		.byte	4
 448 0028 50       		.byte	80
 449 0029 18       		.byte	24
 450 002a 58       		.byte	88
 451 002b 04       		.byte	4
 452 002c 5A       		.byte	90
 453 002d 04       		.byte	4
 454 002e 5D       		.byte	93
 455 002f 01       		.byte	1
 456 0030 5F       		.byte	95
 457 0031 01       		.byte	1
 458 0032 60       		.byte	96
 459 0033 40       		.byte	64
 460 0034 62       		.byte	98
 461 0035 C0       		.byte	-64
 462 0036 64       		.byte	100
 463 0037 40       		.byte	64
 464 0038 65       		.byte	101
 465 0039 40       		.byte	64
 466 003a 66       		.byte	102
 467 003b C0       		.byte	-64
 468 003c 68       		.byte	104
 469 003d C0       		.byte	-64
 470 003e 6A       		.byte	106
 471 003f C0       		.byte	-64
ARM GAS  C:\Users\PHYSLA~1\AppData\Local\Temp\cc7wy4om.s 			page 21


 472 0040 6C       		.byte	108
 473 0041 C0       		.byte	-64
 474 0042 6E       		.byte	110
 475 0043 C0       		.byte	-64
 476 0044 81       		.byte	-127
 477 0045 06       		.byte	6
 478 0046 85       		.byte	-123
 479 0047 06       		.byte	6
 480 0048 8A       		.byte	-118
 481 0049 02       		.byte	2
 482 004a 8B       		.byte	-117
 483 004b 02       		.byte	2
 484 004c 8C       		.byte	-116
 485 004d 0A       		.byte	10
 486 004e 93       		.byte	-109
 487 004f 01       		.byte	1
 488 0050 94       		.byte	-108
 489 0051 02       		.byte	2
 490 0052 96       		.byte	-106
 491 0053 0D       		.byte	13
 492 0054 97       		.byte	-105
 493 0055 01       		.byte	1
 494 0056 9D       		.byte	-99
 495 0057 04       		.byte	4
 496 0058 A0       		.byte	-96
 497 0059 04       		.byte	4
 498 005a A2       		.byte	-94
 499 005b 09       		.byte	9
 500 005c A6       		.byte	-90
 501 005d 02       		.byte	2
 502 005e A8       		.byte	-88
 503 005f 02       		.byte	2
 504 0060 B0       		.byte	-80
 505 0061 08       		.byte	8
 506 0062 B2       		.byte	-78
 507 0063 06       		.byte	6
 508 0064 B3       		.byte	-77
 509 0065 01       		.byte	1
 510 0066 B4       		.byte	-76
 511 0067 01       		.byte	1
 512 0068 B5       		.byte	-75
 513 0069 02       		.byte	2
 514 006a B6       		.byte	-74
 515 006b 01       		.byte	1
 516 006c B7       		.byte	-73
 517 006d 04       		.byte	4
 518 006e BA       		.byte	-70
 519 006f 02       		.byte	2
 520 0070 BC       		.byte	-68
 521 0071 0A       		.byte	10
 522 0072 BD       		.byte	-67
 523 0073 80       		.byte	-128
 524 0074 BE       		.byte	-66
 525 0075 10       		.byte	16
 526 0076 C0       		.byte	-64
 527 0077 31       		.byte	49
 528 0078 C1       		.byte	-63
ARM GAS  C:\Users\PHYSLA~1\AppData\Local\Temp\cc7wy4om.s 			page 22


 529 0079 04       		.byte	4
 530 007a C5       		.byte	-59
 531 007b D1       		.byte	-47
 532 007c C6       		.byte	-58
 533 007d 02       		.byte	2
 534 007e C8       		.byte	-56
 535 007f 27       		.byte	39
 536 0080 C9       		.byte	-55
 537 0081 FF       		.byte	-1
 538 0082 CA       		.byte	-54
 539 0083 FF       		.byte	-1
 540 0084 CB       		.byte	-53
 541 0085 FF       		.byte	-1
 542 0086 CD       		.byte	-51
 543 0087 AF       		.byte	-81
 544 0088 CE       		.byte	-50
 545 0089 0F       		.byte	15
 546 008a CF       		.byte	-49
 547 008b 04       		.byte	4
 548 008c D0       		.byte	-48
 549 008d 18       		.byte	24
 550 008e D4       		.byte	-44
 551 008f 05       		.byte	5
 552 0090 D8       		.byte	-40
 553 0091 04       		.byte	4
 554 0092 D9       		.byte	-39
 555 0093 04       		.byte	4
 556 0094 DA       		.byte	-38
 557 0095 04       		.byte	4
 558 0096 DB       		.byte	-37
 559 0097 04       		.byte	4
 560 0098 DC       		.byte	-36
 561 0099 11       		.byte	17
 562 009a DD       		.byte	-35
 563 009b 11       		.byte	17
 564 009c DF       		.byte	-33
 565 009d 05       		.byte	5
 566 009e E0       		.byte	-32
 567 009f 40       		.byte	64
 568 00a0 E2       		.byte	-30
 569 00a1 C0       		.byte	-64
 570 00a2 E4       		.byte	-28
 571 00a3 40       		.byte	64
 572 00a4 E5       		.byte	-27
 573 00a5 40       		.byte	64
 574 00a6 E6       		.byte	-26
 575 00a7 C0       		.byte	-64
 576 00a8 E8       		.byte	-24
 577 00a9 C0       		.byte	-64
 578 00aa EA       		.byte	-22
 579 00ab C0       		.byte	-64
 580 00ac EC       		.byte	-20
 581 00ad C0       		.byte	-64
 582 00ae EE       		.byte	-18
 583 00af C0       		.byte	-64
 584 00b0 04       		.byte	4
 585 00b1 40       		.byte	64
ARM GAS  C:\Users\PHYSLA~1\AppData\Local\Temp\cc7wy4om.s 			page 23


 586 00b2 06       		.byte	6
 587 00b3 08       		.byte	8
 588 00b4 0D       		.byte	13
 589 00b5 08       		.byte	8
 590 00b6 13       		.byte	19
 591 00b7 0A       		.byte	10
 592 00b8 16       		.byte	22
 593 00b9 80       		.byte	-128
 594 00ba 17       		.byte	23
 595 00bb 18       		.byte	24
 596 00bc 18       		.byte	24
 597 00bd 01       		.byte	1
 598 00be 1C       		.byte	28
 599 00bf 50       		.byte	80
 600 00c0 1D       		.byte	29
 601 00c1 88       		.byte	-120
 602 00c2 1E       		.byte	30
 603 00c3 09       		.byte	9
 604 00c4 1F       		.byte	31
 605 00c5 40       		.byte	64
 606 00c6 25       		.byte	37
 607 00c7 20       		.byte	32
 608 00c8 26       		.byte	38
 609 00c9 40       		.byte	64
 610 00ca 27       		.byte	39
 611 00cb 10       		.byte	16
 612 00cc 36       		.byte	54
 613 00cd 80       		.byte	-128
 614 00ce 37       		.byte	55
 615 00cf 0A       		.byte	10
 616 00d0 3C       		.byte	60
 617 00d1 10       		.byte	16
 618 00d2 3F       		.byte	63
 619 00d3 0A       		.byte	10
 620 00d4 40       		.byte	64
 621 00d5 10       		.byte	16
 622 00d6 42       		.byte	66
 623 00d7 81       		.byte	-127
 624 00d8 45       		.byte	69
 625 00d9 88       		.byte	-120
 626 00da 46       		.byte	70
 627 00db 80       		.byte	-128
 628 00dc 4F       		.byte	79
 629 00dd 09       		.byte	9
 630 00de 56       		.byte	86
 631 00df 80       		.byte	-128
 632 00e0 57       		.byte	87
 633 00e1 01       		.byte	1
 634 00e2 5E       		.byte	94
 635 00e3 88       		.byte	-120
 636 00e4 5F       		.byte	95
 637 00e5 01       		.byte	1
 638 00e6 7F       		.byte	127
 639 00e7 40       		.byte	64
 640 00e8 8B       		.byte	-117
 641 00e9 08       		.byte	8
 642 00ea C0       		.byte	-64
ARM GAS  C:\Users\PHYSLA~1\AppData\Local\Temp\cc7wy4om.s 			page 24


 643 00eb C0       		.byte	-64
 644 00ec C2       		.byte	-62
 645 00ed 20       		.byte	32
 646 00ee C4       		.byte	-60
 647 00ef 7C       		.byte	124
 648 00f0 CC       		.byte	-52
 649 00f1 D0       		.byte	-48
 650 00f2 CE       		.byte	-50
 651 00f3 E0       		.byte	-32
 652 00f4 D0       		.byte	-48
 653 00f5 DB       		.byte	-37
 654 00f6 D6       		.byte	-42
 655 00f7 D0       		.byte	-48
 656 00f8 DE       		.byte	-34
 657 00f9 80       		.byte	-128
 658 00fa 01       		.byte	1
 659 00fb 10       		.byte	16
 660 00fc 05       		.byte	5
 661 00fd 10       		.byte	16
 662 00fe 08       		.byte	8
 663 00ff 01       		.byte	1
 664 0100 0A       		.byte	10
 665 0101 02       		.byte	2
 666 0102 0C       		.byte	12
 667 0103 02       		.byte	2
 668 0104 0E       		.byte	14
 669 0105 05       		.byte	5
 670 0106 15       		.byte	21
 671 0107 01       		.byte	1
 672 0108 17       		.byte	23
 673 0109 02       		.byte	2
 674 010a 1A       		.byte	26
 675 010b 07       		.byte	7
 676 010c 1D       		.byte	29
 677 010d 04       		.byte	4
 678 010e 1F       		.byte	31
 679 010f 02       		.byte	2
 680 0110 20       		.byte	32
 681 0111 04       		.byte	4
 682 0112 22       		.byte	34
 683 0113 02       		.byte	2
 684 0114 23       		.byte	35
 685 0115 07       		.byte	7
 686 0116 2D       		.byte	45
 687 0117 0A       		.byte	10
 688 0118 2F       		.byte	47
 689 0119 05       		.byte	5
 690 011a 30       		.byte	48
 691 011b 07       		.byte	7
 692 011c 31       		.byte	49
 693 011d 07       		.byte	7
 694 011e 35       		.byte	53
 695 011f 08       		.byte	8
 696 0120 36       		.byte	54
 697 0121 07       		.byte	7
 698 0122 37       		.byte	55
 699 0123 10       		.byte	16
ARM GAS  C:\Users\PHYSLA~1\AppData\Local\Temp\cc7wy4om.s 			page 25


 700 0124 3E       		.byte	62
 701 0125 01       		.byte	1
 702 0126 3F       		.byte	63
 703 0127 11       		.byte	17
 704 0128 40       		.byte	64
 705 0129 65       		.byte	101
 706 012a 49       		.byte	73
 707 012b FF       		.byte	-1
 708 012c 4A       		.byte	74
 709 012d FF       		.byte	-1
 710 012e 4B       		.byte	75
 711 012f FF       		.byte	-1
 712 0130 4F       		.byte	79
 713 0131 01       		.byte	1
 714 0132 50       		.byte	80
 715 0133 18       		.byte	24
 716 0134 58       		.byte	88
 717 0135 04       		.byte	4
 718 0136 59       		.byte	89
 719 0137 04       		.byte	4
 720 0138 5A       		.byte	90
 721 0139 04       		.byte	4
 722 013a 5C       		.byte	92
 723 013b 13       		.byte	19
 724 013c 5D       		.byte	93
 725 013d 03       		.byte	3
 726 013e 5F       		.byte	95
 727 013f 01       		.byte	1
 728 0140 60       		.byte	96
 729 0141 40       		.byte	64
 730 0142 62       		.byte	98
 731 0143 40       		.byte	64
 732 0144 64       		.byte	100
 733 0145 40       		.byte	64
 734 0146 65       		.byte	101
 735 0147 40       		.byte	64
 736 0148 66       		.byte	102
 737 0149 80       		.byte	-128
 738 014a 68       		.byte	104
 739 014b 80       		.byte	-128
 740 014c 6A       		.byte	106
 741 014d 80       		.byte	-128
 742 014e 6C       		.byte	108
 743 014f 80       		.byte	-128
 744 0150 6E       		.byte	110
 745 0151 80       		.byte	-128
 746 0152 8C       		.byte	-116
 747 0153 02       		.byte	2
 748 0154 8E       		.byte	-114
 749 0155 05       		.byte	5
 750 0156 A0       		.byte	-96
 751 0157 04       		.byte	4
 752 0158 A2       		.byte	-94
 753 0159 02       		.byte	2
 754 015a A4       		.byte	-92
 755 015b 01       		.byte	1
 756 015c A6       		.byte	-90
ARM GAS  C:\Users\PHYSLA~1\AppData\Local\Temp\cc7wy4om.s 			page 26


 757 015d 02       		.byte	2
 758 015e B4       		.byte	-76
 759 015f 07       		.byte	7
 760 0160 BE       		.byte	-66
 761 0161 10       		.byte	16
 762 0162 C0       		.byte	-64
 763 0163 25       		.byte	37
 764 0164 C5       		.byte	-59
 765 0165 EC       		.byte	-20
 766 0166 C6       		.byte	-58
 767 0167 20       		.byte	32
 768 0168 C7       		.byte	-57
 769 0169 20       		.byte	32
 770 016a C8       		.byte	-56
 771 016b 2B       		.byte	43
 772 016c C9       		.byte	-55
 773 016d FF       		.byte	-1
 774 016e CA       		.byte	-54
 775 016f FF       		.byte	-1
 776 0170 CB       		.byte	-53
 777 0171 FF       		.byte	-1
 778 0172 CD       		.byte	-51
 779 0173 83       		.byte	-125
 780 0174 CE       		.byte	-50
 781 0175 03       		.byte	3
 782 0176 CF       		.byte	-49
 783 0177 01       		.byte	1
 784 0178 D0       		.byte	-48
 785 0179 18       		.byte	24
 786 017a D4       		.byte	-44
 787 017b 01       		.byte	1
 788 017c D8       		.byte	-40
 789 017d 04       		.byte	4
 790 017e DA       		.byte	-38
 791 017f 04       		.byte	4
 792 0180 DB       		.byte	-37
 793 0181 04       		.byte	4
 794 0182 DD       		.byte	-35
 795 0183 33       		.byte	51
 796 0184 DF       		.byte	-33
 797 0185 01       		.byte	1
 798 0186 E0       		.byte	-32
 799 0187 40       		.byte	64
 800 0188 E2       		.byte	-30
 801 0189 40       		.byte	64
 802 018a E4       		.byte	-28
 803 018b 40       		.byte	64
 804 018c E5       		.byte	-27
 805 018d 40       		.byte	64
 806 018e E6       		.byte	-26
 807 018f 80       		.byte	-128
 808 0190 E8       		.byte	-24
 809 0191 80       		.byte	-128
 810 0192 EA       		.byte	-22
 811 0193 80       		.byte	-128
 812 0194 EC       		.byte	-20
 813 0195 80       		.byte	-128
ARM GAS  C:\Users\PHYSLA~1\AppData\Local\Temp\cc7wy4om.s 			page 27


 814 0196 EE       		.byte	-18
 815 0197 80       		.byte	-128
 816 0198 01       		.byte	1
 817 0199 80       		.byte	-128
 818 019a 05       		.byte	5
 819 019b 80       		.byte	-128
 820 019c 07       		.byte	7
 821 019d 08       		.byte	8
 822 019e 0D       		.byte	13
 823 019f 20       		.byte	32
 824 01a0 10       		.byte	16
 825 01a1 40       		.byte	64
 826 01a2 13       		.byte	19
 827 01a3 0A       		.byte	10
 828 01a4 17       		.byte	23
 829 01a5 02       		.byte	2
 830 01a6 18       		.byte	24
 831 01a7 08       		.byte	8
 832 01a8 1B       		.byte	27
 833 01a9 20       		.byte	32
 834 01aa 1E       		.byte	30
 835 01ab 40       		.byte	64
 836 01ac 1F       		.byte	31
 837 01ad 80       		.byte	-128
 838 01ae 26       		.byte	38
 839 01af 90       		.byte	-112
 840 01b0 27       		.byte	39
 841 01b1 80       		.byte	-128
 842 01b2 2D       		.byte	45
 843 01b3 80       		.byte	-128
 844 01b4 2F       		.byte	47
 845 01b5 80       		.byte	-128
 846 01b6 34       		.byte	52
 847 01b7 40       		.byte	64
 848 01b8 37       		.byte	55
 849 01b9 08       		.byte	8
 850 01ba 3F       		.byte	63
 851 01bb 0A       		.byte	10
 852 01bc 43       		.byte	67
 853 01bd 20       		.byte	32
 854 01be 48       		.byte	72
 855 01bf 02       		.byte	2
 856 01c0 49       		.byte	73
 857 01c1 05       		.byte	5
 858 01c2 4C       		.byte	76
 859 01c3 04       		.byte	4
 860 01c4 4E       		.byte	78
 861 01c5 02       		.byte	2
 862 01c6 50       		.byte	80
 863 01c7 02       		.byte	2
 864 01c8 51       		.byte	81
 865 01c9 20       		.byte	32
 866 01ca 52       		.byte	82
 867 01cb 02       		.byte	2
 868 01cc 59       		.byte	89
 869 01cd 05       		.byte	5
 870 01ce 5A       		.byte	90
ARM GAS  C:\Users\PHYSLA~1\AppData\Local\Temp\cc7wy4om.s 			page 28


 871 01cf 40       		.byte	64
 872 01d0 81       		.byte	-127
 873 01d1 80       		.byte	-128
 874 01d2 86       		.byte	-122
 875 01d3 10       		.byte	16
 876 01d4 8B       		.byte	-117
 877 01d5 80       		.byte	-128
 878 01d6 9B       		.byte	-101
 879 01d7 0A       		.byte	10
 880 01d8 A3       		.byte	-93
 881 01d9 05       		.byte	5
 882 01da A6       		.byte	-90
 883 01db 80       		.byte	-128
 884 01dc AA       		.byte	-86
 885 01dd 08       		.byte	8
 886 01de AB       		.byte	-85
 887 01df 02       		.byte	2
 888 01e0 B4       		.byte	-76
 889 01e1 01       		.byte	1
 890 01e2 B5       		.byte	-75
 891 01e3 20       		.byte	32
 892 01e4 C0       		.byte	-64
 893 01e5 C1       		.byte	-63
 894 01e6 C2       		.byte	-62
 895 01e7 40       		.byte	64
 896 01e8 C4       		.byte	-60
 897 01e9 1C       		.byte	28
 898 01ea CA       		.byte	-54
 899 01eb 90       		.byte	-112
 900 01ec CC       		.byte	-52
 901 01ed 50       		.byte	80
 902 01ee CE       		.byte	-50
 903 01ef C0       		.byte	-64
 904 01f0 D0       		.byte	-48
 905 01f1 04       		.byte	4
 906 01f2 D2       		.byte	-46
 907 01f3 38       		.byte	56
 908 01f4 D6       		.byte	-42
 909 01f5 0B       		.byte	11
 910 01f6 E6       		.byte	-26
 911 01f7 20       		.byte	32
 912 01f8 EE       		.byte	-18
 913 01f9 50       		.byte	80
 914 01fa 05       		.byte	5
 915 01fb 04       		.byte	4
 916 01fc 51       		.byte	81
 917 01fd 10       		.byte	16
 918 01fe 62       		.byte	98
 919 01ff 01       		.byte	1
 920 0200 66       		.byte	102
 921 0201 80       		.byte	-128
 922 0202 C0       		.byte	-64
 923 0203 20       		.byte	32
 924 0204 D4       		.byte	-44
 925 0205 20       		.byte	32
 926 0206 D6       		.byte	-42
 927 0207 80       		.byte	-128
ARM GAS  C:\Users\PHYSLA~1\AppData\Local\Temp\cc7wy4om.s 			page 29


 928 0208 D8       		.byte	-40
 929 0209 40       		.byte	64
 930 020a 07       		.byte	7
 931 020b 10       		.byte	16
 932 020c 5B       		.byte	91
 933 020d 10       		.byte	16
 934 020e 63       		.byte	99
 935 020f 02       		.byte	2
 936 0210 83       		.byte	-125
 937 0211 10       		.byte	16
 938 0212 87       		.byte	-121
 939 0213 01       		.byte	1
 940 0214 89       		.byte	-119
 941 0215 10       		.byte	16
 942 0216 95       		.byte	-107
 943 0217 20       		.byte	32
 944 0218 A9       		.byte	-87
 945 0219 04       		.byte	4
 946 021a B6       		.byte	-74
 947 021b 81       		.byte	-127
 948 021c C0       		.byte	-64
 949 021d 20       		.byte	32
 950 021e D4       		.byte	-44
 951 021f 80       		.byte	-128
 952 0220 D6       		.byte	-42
 953 0221 40       		.byte	64
 954 0222 E0       		.byte	-32
 955 0223 20       		.byte	32
 956 0224 E6       		.byte	-26
 957 0225 10       		.byte	16
 958 0226 EC       		.byte	-20
 959 0227 80       		.byte	-128
 960 0228 02       		.byte	2
 961 0229 08       		.byte	8
 962 022a 8A       		.byte	-118
 963 022b 08       		.byte	8
 964 022c C0       		.byte	-64
 965 022d 02       		.byte	2
 966 022e E6       		.byte	-26
 967 022f 01       		.byte	1
 968 0230 01       		.byte	1
 969 0231 0A       		.byte	10
 970 0232 10       		.byte	16
 971 0233 0A       		.byte	10
 972              		.type	cy_cfg_addr_table.4864, %object
 973              		.size	cy_cfg_addr_table.4864, 36
 974              	cy_cfg_addr_table.4864:
 975 0234 02000F40 		.word	1074724866
 976 0238 50300F40 		.word	1074737232
 977 023c 25310F40 		.word	1074737445
 978 0240 4F320F40 		.word	1074737743
 979 0244 31330F40 		.word	1074737969
 980 0248 08400F40 		.word	1074741256
 981 024c 0F410F40 		.word	1074741519
 982 0250 04420F40 		.word	1074741764
 983 0254 02600F40 		.word	1074749442
 984              		.text
ARM GAS  C:\Users\PHYSLA~1\AppData\Local\Temp\cc7wy4om.s 			page 30


 985              	.Letext0:
 986              		.file 2 "c:\\program files (x86)\\cypress\\psoc creator\\4.2\\psoc creator\\import\\gnu\\arm\\5.4.
 987              		.file 3 "Generated_Source\\PSoC4\\cytypes.h"
 988              		.file 4 "Generated_Source\\PSoC4\\CyLib.h"